
3SO_FreeRTOS.elf:     file format elf32-littlearm

Sections:
Idx Name          Size      VMA       LMA       File off  Algn
  0 .isr_vector   0000010c  08000000  08000000  00010000  2**0
                  CONTENTS, ALLOC, LOAD, READONLY, DATA
  1 .text         00003450  08000110  08000110  00010110  2**4
                  CONTENTS, ALLOC, LOAD, READONLY, CODE
  2 .rodata       00000598  08003560  08003560  00013560  2**2
                  CONTENTS, ALLOC, LOAD, READONLY, DATA
  3 .ARM.extab    00000000  08003af8  08003af8  00020094  2**0
                  CONTENTS
  4 .ARM          00000000  08003af8  08003af8  00020094  2**0
                  CONTENTS
  5 .preinit_array 00000000  08003af8  08003af8  00020094  2**0
                  CONTENTS, ALLOC, LOAD, DATA
  6 .init_array   00000004  08003af8  08003af8  00013af8  2**2
                  CONTENTS, ALLOC, LOAD, DATA
  7 .fini_array   00000004  08003afc  08003afc  00013afc  2**2
                  CONTENTS, ALLOC, LOAD, DATA
  8 .data         00000094  20000000  08003b00  00020000  2**2
                  CONTENTS, ALLOC, LOAD, DATA
  9 .bss          000045d4  20000094  08003b94  00020094  2**2
                  ALLOC
 10 ._user_heap_stack 00000400  20004668  08003b94  00024668  2**0
                  ALLOC
 11 .ARM.attributes 00000029  00000000  00000000  00020094  2**0
                  CONTENTS, READONLY
 12 .debug_info   00011c2b  00000000  00000000  000200bd  2**0
                  CONTENTS, READONLY, DEBUGGING, OCTETS
 13 .debug_abbrev 00002e68  00000000  00000000  00031ce8  2**0
                  CONTENTS, READONLY, DEBUGGING, OCTETS
 14 .debug_loc    000069e2  00000000  00000000  00034b50  2**0
                  CONTENTS, READONLY, DEBUGGING, OCTETS
 15 .debug_aranges 00000a68  00000000  00000000  0003b538  2**3
                  CONTENTS, READONLY, DEBUGGING, OCTETS
 16 .debug_ranges 00000e18  00000000  00000000  0003bfa0  2**3
                  CONTENTS, READONLY, DEBUGGING, OCTETS
 17 .debug_macro  00004f69  00000000  00000000  0003cdb8  2**0
                  CONTENTS, READONLY, DEBUGGING, OCTETS
 18 .debug_line   0000dea2  00000000  00000000  00041d21  2**0
                  CONTENTS, READONLY, DEBUGGING, OCTETS
 19 .debug_str    0005d991  00000000  00000000  0004fbc3  2**0
                  CONTENTS, READONLY, DEBUGGING, OCTETS
 20 .comment      00000053  00000000  00000000  000ad554  2**0
                  CONTENTS, READONLY
 21 .debug_frame  00002178  00000000  00000000  000ad5a8  2**2
                  CONTENTS, READONLY, DEBUGGING, OCTETS

Disassembly of section .text:

08000110 <__do_global_dtors_aux>:
 8000110:	b510      	push	{r4, lr}
 8000112:	4c05      	ldr	r4, [pc, #20]	; (8000128 <__do_global_dtors_aux+0x18>)
 8000114:	7823      	ldrb	r3, [r4, #0]
 8000116:	b933      	cbnz	r3, 8000126 <__do_global_dtors_aux+0x16>
 8000118:	4b04      	ldr	r3, [pc, #16]	; (800012c <__do_global_dtors_aux+0x1c>)
 800011a:	b113      	cbz	r3, 8000122 <__do_global_dtors_aux+0x12>
 800011c:	4804      	ldr	r0, [pc, #16]	; (8000130 <__do_global_dtors_aux+0x20>)
 800011e:	f3af 8000 	nop.w
 8000122:	2301      	movs	r3, #1
 8000124:	7023      	strb	r3, [r4, #0]
 8000126:	bd10      	pop	{r4, pc}
 8000128:	20000094 	.word	0x20000094
 800012c:	00000000 	.word	0x00000000
 8000130:	08003548 	.word	0x08003548

08000134 <frame_dummy>:
 8000134:	b508      	push	{r3, lr}
 8000136:	4b03      	ldr	r3, [pc, #12]	; (8000144 <frame_dummy+0x10>)
 8000138:	b11b      	cbz	r3, 8000142 <frame_dummy+0xe>
 800013a:	4903      	ldr	r1, [pc, #12]	; (8000148 <frame_dummy+0x14>)
 800013c:	4803      	ldr	r0, [pc, #12]	; (800014c <frame_dummy+0x18>)
 800013e:	f3af 8000 	nop.w
 8000142:	bd08      	pop	{r3, pc}
 8000144:	00000000 	.word	0x00000000
 8000148:	20000098 	.word	0x20000098
 800014c:	08003548 	.word	0x08003548

08000150 <strlen>:
 8000150:	4603      	mov	r3, r0
 8000152:	f813 2b01 	ldrb.w	r2, [r3], #1
 8000156:	2a00      	cmp	r2, #0
 8000158:	d1fb      	bne.n	8000152 <strlen+0x2>
 800015a:	1a18      	subs	r0, r3, r0
 800015c:	3801      	subs	r0, #1
 800015e:	4770      	bx	lr

08000160 <__aeabi_f2iz>:
 8000160:	ea4f 0240 	mov.w	r2, r0, lsl #1
 8000164:	f1b2 4ffe 	cmp.w	r2, #2130706432	; 0x7f000000
 8000168:	d30f      	bcc.n	800018a <__aeabi_f2iz+0x2a>
 800016a:	f04f 039e 	mov.w	r3, #158	; 0x9e
 800016e:	ebb3 6212 	subs.w	r2, r3, r2, lsr #24
 8000172:	d90d      	bls.n	8000190 <__aeabi_f2iz+0x30>
 8000174:	ea4f 2300 	mov.w	r3, r0, lsl #8
 8000178:	f043 4300 	orr.w	r3, r3, #2147483648	; 0x80000000
 800017c:	f010 4f00 	tst.w	r0, #2147483648	; 0x80000000
 8000180:	fa23 f002 	lsr.w	r0, r3, r2
 8000184:	bf18      	it	ne
 8000186:	4240      	negne	r0, r0
 8000188:	4770      	bx	lr
 800018a:	f04f 0000 	mov.w	r0, #0
 800018e:	4770      	bx	lr
 8000190:	f112 0f61 	cmn.w	r2, #97	; 0x61
 8000194:	d101      	bne.n	800019a <__aeabi_f2iz+0x3a>
 8000196:	0242      	lsls	r2, r0, #9
 8000198:	d105      	bne.n	80001a6 <__aeabi_f2iz+0x46>
 800019a:	f010 4000 	ands.w	r0, r0, #2147483648	; 0x80000000
 800019e:	bf08      	it	eq
 80001a0:	f06f 4000 	mvneq.w	r0, #2147483648	; 0x80000000
 80001a4:	4770      	bx	lr
 80001a6:	f04f 0000 	mov.w	r0, #0
 80001aa:	4770      	bx	lr

080001ac <pvPortMalloc>:
	pxIterator->pxNextFreeBlock = pxBlockToInsert;									\
}
/*-----------------------------------------------------------*/

void *pvPortMalloc( size_t xWantedSize )
{
 80001ac:	b570      	push	{r4, r5, r6, lr}
 80001ae:	4604      	mov	r4, r0
BlockLink_t *pxBlock, *pxPreviousBlock, *pxNewBlockLink;
static BaseType_t xHeapHasBeenInitialised = pdFALSE;
void *pvReturn = NULL;

	vTaskSuspendAll();
 80001b0:	f000 fde0 	bl	8000d74 <vTaskSuspendAll>
	{
		/* If this is the first call to malloc then the heap will require
		initialisation to setup the list of free blocks. */
		if( xHeapHasBeenInitialised == pdFALSE )
 80001b4:	4b24      	ldr	r3, [pc, #144]	; (8000248 <pvPortMalloc+0x9c>)
 80001b6:	6898      	ldr	r0, [r3, #8]
 80001b8:	b970      	cbnz	r0, 80001d8 <pvPortMalloc+0x2c>
	xStart.pxNextFreeBlock = ( void * ) pucAlignedHeap;
	xStart.xBlockSize = ( size_t ) 0;

	/* xEnd is used to mark the end of the list of free blocks. */
	xEnd.xBlockSize = configADJUSTED_HEAP_SIZE;
	xEnd.pxNextFreeBlock = NULL;
 80001ba:	4619      	mov	r1, r3
	xEnd.xBlockSize = configADJUSTED_HEAP_SIZE;
 80001bc:	f244 35f8 	movw	r5, #17400	; 0x43f8
	pucAlignedHeap = ( uint8_t * ) ( ( ( portPOINTER_SIZE_TYPE ) &ucHeap[ portBYTE_ALIGNMENT ] ) & ( ~( ( portPOINTER_SIZE_TYPE ) portBYTE_ALIGNMENT_MASK ) ) );
 80001c0:	4a22      	ldr	r2, [pc, #136]	; (800024c <pvPortMalloc+0xa0>)
	xEnd.pxNextFreeBlock = NULL;
 80001c2:	f841 0f0c 	str.w	r0, [r1, #12]!
	pucAlignedHeap = ( uint8_t * ) ( ( ( portPOINTER_SIZE_TYPE ) &ucHeap[ portBYTE_ALIGNMENT ] ) & ( ~( ( portPOINTER_SIZE_TYPE ) portBYTE_ALIGNMENT_MASK ) ) );
 80001c6:	f022 0207 	bic.w	r2, r2, #7
	xStart.xBlockSize = ( size_t ) 0;
 80001ca:	e9c3 2000 	strd	r2, r0, [r3]

	/* To start with there is a single free block that is sized to take up the
	entire heap space. */
	pxFirstFreeBlock = ( void * ) pucAlignedHeap;
	pxFirstFreeBlock->xBlockSize = configADJUSTED_HEAP_SIZE;
	pxFirstFreeBlock->pxNextFreeBlock = &xEnd;
 80001ce:	e9c2 1500 	strd	r1, r5, [r2]
			xHeapHasBeenInitialised = pdTRUE;
 80001d2:	2201      	movs	r2, #1
	xEnd.xBlockSize = configADJUSTED_HEAP_SIZE;
 80001d4:	611d      	str	r5, [r3, #16]
			xHeapHasBeenInitialised = pdTRUE;
 80001d6:	609a      	str	r2, [r3, #8]
		if( xWantedSize > 0 )
 80001d8:	b12c      	cbz	r4, 80001e6 <pvPortMalloc+0x3a>
			xWantedSize += heapSTRUCT_SIZE;
 80001da:	3408      	adds	r4, #8
			if( ( xWantedSize & portBYTE_ALIGNMENT_MASK ) != 0 )
 80001dc:	0762      	lsls	r2, r4, #29
				xWantedSize += ( portBYTE_ALIGNMENT - ( xWantedSize & portBYTE_ALIGNMENT_MASK ) );
 80001de:	bf1c      	itt	ne
 80001e0:	f024 0407 	bicne.w	r4, r4, #7
 80001e4:	3408      	addne	r4, #8
		if( ( xWantedSize > 0 ) && ( xWantedSize < configADJUSTED_HEAP_SIZE ) )
 80001e6:	f244 32f6 	movw	r2, #17398	; 0x43f6
 80001ea:	1e61      	subs	r1, r4, #1
 80001ec:	4291      	cmp	r1, r2
 80001ee:	d829      	bhi.n	8000244 <pvPortMalloc+0x98>
			pxBlock = xStart.pxNextFreeBlock;
 80001f0:	681b      	ldr	r3, [r3, #0]
			pxPreviousBlock = &xStart;
 80001f2:	4815      	ldr	r0, [pc, #84]	; (8000248 <pvPortMalloc+0x9c>)
			while( ( pxBlock->xBlockSize < xWantedSize ) && ( pxBlock->pxNextFreeBlock != NULL ) )
 80001f4:	6859      	ldr	r1, [r3, #4]
 80001f6:	42a1      	cmp	r1, r4
 80001f8:	d201      	bcs.n	80001fe <pvPortMalloc+0x52>
 80001fa:	681a      	ldr	r2, [r3, #0]
 80001fc:	b9fa      	cbnz	r2, 800023e <pvPortMalloc+0x92>
			if( pxBlock != &xEnd )
 80001fe:	4a14      	ldr	r2, [pc, #80]	; (8000250 <pvPortMalloc+0xa4>)
 8000200:	4293      	cmp	r3, r2
 8000202:	d01f      	beq.n	8000244 <pvPortMalloc+0x98>
				pvReturn = ( void * ) ( ( ( uint8_t * ) pxPreviousBlock->pxNextFreeBlock ) + heapSTRUCT_SIZE );
 8000204:	6805      	ldr	r5, [r0, #0]
				pxPreviousBlock->pxNextFreeBlock = pxBlock->pxNextFreeBlock;
 8000206:	681e      	ldr	r6, [r3, #0]
				if( ( pxBlock->xBlockSize - xWantedSize ) > heapMINIMUM_BLOCK_SIZE )
 8000208:	1b09      	subs	r1, r1, r4
 800020a:	2910      	cmp	r1, #16
				pvReturn = ( void * ) ( ( ( uint8_t * ) pxPreviousBlock->pxNextFreeBlock ) + heapSTRUCT_SIZE );
 800020c:	f105 0508 	add.w	r5, r5, #8
				pxPreviousBlock->pxNextFreeBlock = pxBlock->pxNextFreeBlock;
 8000210:	6006      	str	r6, [r0, #0]
				if( ( pxBlock->xBlockSize - xWantedSize ) > heapMINIMUM_BLOCK_SIZE )
 8000212:	d90b      	bls.n	800022c <pvPortMalloc+0x80>
					pxNewBlockLink = ( void * ) ( ( ( uint8_t * ) pxBlock ) + xWantedSize );
 8000214:	1918      	adds	r0, r3, r4
					pxNewBlockLink->xBlockSize = pxBlock->xBlockSize - xWantedSize;
 8000216:	6041      	str	r1, [r0, #4]
					pxBlock->xBlockSize = xWantedSize;
 8000218:	605c      	str	r4, [r3, #4]
					prvInsertBlockIntoFreeList( ( pxNewBlockLink ) );
 800021a:	6844      	ldr	r4, [r0, #4]
 800021c:	3a0c      	subs	r2, #12
 800021e:	4611      	mov	r1, r2
 8000220:	6812      	ldr	r2, [r2, #0]
 8000222:	6856      	ldr	r6, [r2, #4]
 8000224:	42a6      	cmp	r6, r4
 8000226:	d3fa      	bcc.n	800021e <pvPortMalloc+0x72>
 8000228:	6002      	str	r2, [r0, #0]
 800022a:	6008      	str	r0, [r1, #0]
				xFreeBytesRemaining -= pxBlock->xBlockSize;
 800022c:	4909      	ldr	r1, [pc, #36]	; (8000254 <pvPortMalloc+0xa8>)
 800022e:	685b      	ldr	r3, [r3, #4]
 8000230:	680a      	ldr	r2, [r1, #0]
 8000232:	1ad2      	subs	r2, r2, r3
 8000234:	600a      	str	r2, [r1, #0]
	( void ) xTaskResumeAll();
 8000236:	f000 fe13 	bl	8000e60 <xTaskResumeAll>
}
 800023a:	4628      	mov	r0, r5
 800023c:	bd70      	pop	{r4, r5, r6, pc}
 800023e:	4618      	mov	r0, r3
 8000240:	4613      	mov	r3, r2
 8000242:	e7d7      	b.n	80001f4 <pvPortMalloc+0x48>
void *pvReturn = NULL;
 8000244:	2500      	movs	r5, #0
 8000246:	e7f6      	b.n	8000236 <pvPortMalloc+0x8a>
 8000248:	200000b0 	.word	0x200000b0
 800024c:	200000cc 	.word	0x200000cc
 8000250:	200000bc 	.word	0x200000bc
 8000254:	20000000 	.word	0x20000000

08000258 <vPortFree>:
{
 8000258:	b538      	push	{r3, r4, r5, lr}
	if( pv != NULL )
 800025a:	4604      	mov	r4, r0
 800025c:	b1b0      	cbz	r0, 800028c <vPortFree+0x34>
		puc -= heapSTRUCT_SIZE;
 800025e:	f1a0 0508 	sub.w	r5, r0, #8
		vTaskSuspendAll();
 8000262:	f000 fd87 	bl	8000d74 <vTaskSuspendAll>
			prvInsertBlockIntoFreeList( ( ( BlockLink_t * ) pxLink ) );
 8000266:	f854 1c04 	ldr.w	r1, [r4, #-4]
 800026a:	4b09      	ldr	r3, [pc, #36]	; (8000290 <vPortFree+0x38>)
 800026c:	461a      	mov	r2, r3
 800026e:	681b      	ldr	r3, [r3, #0]
 8000270:	6858      	ldr	r0, [r3, #4]
 8000272:	4288      	cmp	r0, r1
 8000274:	d3fa      	bcc.n	800026c <vPortFree+0x14>
 8000276:	f844 3c08 	str.w	r3, [r4, #-8]
 800027a:	6015      	str	r5, [r2, #0]
			xFreeBytesRemaining += pxLink->xBlockSize;
 800027c:	4a05      	ldr	r2, [pc, #20]	; (8000294 <vPortFree+0x3c>)
 800027e:	6813      	ldr	r3, [r2, #0]
 8000280:	440b      	add	r3, r1
 8000282:	6013      	str	r3, [r2, #0]
}
 8000284:	e8bd 4038 	ldmia.w	sp!, {r3, r4, r5, lr}
		( void ) xTaskResumeAll();
 8000288:	f000 bdea 	b.w	8000e60 <xTaskResumeAll>
}
 800028c:	bd38      	pop	{r3, r4, r5, pc}
 800028e:	bf00      	nop
 8000290:	200000b0 	.word	0x200000b0
 8000294:	20000000 	.word	0x20000000

08000298 <vListInitialise>:
	as the only list entry. */
	pxList->pxIndex = ( ListItem_t * ) &( pxList->xListEnd );			/*lint !e826 !e740 !e9087 The mini list structure is used as the list end to save RAM.  This is checked and valid. */

	/* The list end value is the highest possible value in the list to
	ensure it remains at the end of the list. */
	pxList->xListEnd.xItemValue = portMAX_DELAY;
 8000298:	f04f 32ff 	mov.w	r2, #4294967295
	pxList->pxIndex = ( ListItem_t * ) &( pxList->xListEnd );			/*lint !e826 !e740 !e9087 The mini list structure is used as the list end to save RAM.  This is checked and valid. */
 800029c:	f100 0308 	add.w	r3, r0, #8

	/* The list end next and previous pointers point to itself so we know
	when the list is empty. */
	pxList->xListEnd.pxNext = ( ListItem_t * ) &( pxList->xListEnd );	/*lint !e826 !e740 !e9087 The mini list structure is used as the list end to save RAM.  This is checked and valid. */
 80002a0:	e9c0 2302 	strd	r2, r3, [r0, #8]
	pxList->pxIndex = ( ListItem_t * ) &( pxList->xListEnd );			/*lint !e826 !e740 !e9087 The mini list structure is used as the list end to save RAM.  This is checked and valid. */
 80002a4:	6043      	str	r3, [r0, #4]
	pxList->xListEnd.pxPrevious = ( ListItem_t * ) &( pxList->xListEnd );/*lint !e826 !e740 !e9087 The mini list structure is used as the list end to save RAM.  This is checked and valid. */
 80002a6:	6103      	str	r3, [r0, #16]

	pxList->uxNumberOfItems = ( UBaseType_t ) 0U;
 80002a8:	2300      	movs	r3, #0
 80002aa:	6003      	str	r3, [r0, #0]

	/* Write known values into the list if
	configUSE_LIST_DATA_INTEGRITY_CHECK_BYTES is set to 1. */
	listSET_LIST_INTEGRITY_CHECK_1_VALUE( pxList );
	listSET_LIST_INTEGRITY_CHECK_2_VALUE( pxList );
}
 80002ac:	4770      	bx	lr

080002ae <vListInitialiseItem>:
/*-----------------------------------------------------------*/

void vListInitialiseItem( ListItem_t * const pxItem )
{
	/* Make sure the list item is not recorded as being on a list. */
	pxItem->pxContainer = NULL;
 80002ae:	2300      	movs	r3, #0
 80002b0:	6103      	str	r3, [r0, #16]

	/* Write known values into the list item if
	configUSE_LIST_DATA_INTEGRITY_CHECK_BYTES is set to 1. */
	listSET_FIRST_LIST_ITEM_INTEGRITY_CHECK_VALUE( pxItem );
	listSET_SECOND_LIST_ITEM_INTEGRITY_CHECK_VALUE( pxItem );
}
 80002b2:	4770      	bx	lr

080002b4 <vListInsertEnd>:
/*-----------------------------------------------------------*/

void vListInsertEnd( List_t * const pxList, ListItem_t * const pxNewListItem )
{
ListItem_t * const pxIndex = pxList->pxIndex;
 80002b4:	6843      	ldr	r3, [r0, #4]

	/* Insert a new list item into pxList, but rather than sort the list,
	makes the new list item the last item to be removed by a call to
	listGET_OWNER_OF_NEXT_ENTRY(). */
	pxNewListItem->pxNext = pxIndex;
	pxNewListItem->pxPrevious = pxIndex->pxPrevious;
 80002b6:	689a      	ldr	r2, [r3, #8]
	pxNewListItem->pxNext = pxIndex;
 80002b8:	604b      	str	r3, [r1, #4]
	pxNewListItem->pxPrevious = pxIndex->pxPrevious;
 80002ba:	608a      	str	r2, [r1, #8]

	/* Only used during decision coverage testing. */
	mtCOVERAGE_TEST_DELAY();

	pxIndex->pxPrevious->pxNext = pxNewListItem;
 80002bc:	689a      	ldr	r2, [r3, #8]
 80002be:	6051      	str	r1, [r2, #4]
	pxIndex->pxPrevious = pxNewListItem;
 80002c0:	6099      	str	r1, [r3, #8]

	/* Remember which list the item is in. */
	pxNewListItem->pxContainer = pxList;

	( pxList->uxNumberOfItems )++;
 80002c2:	6803      	ldr	r3, [r0, #0]
	pxNewListItem->pxContainer = pxList;
 80002c4:	6108      	str	r0, [r1, #16]
	( pxList->uxNumberOfItems )++;
 80002c6:	3301      	adds	r3, #1
 80002c8:	6003      	str	r3, [r0, #0]
}
 80002ca:	4770      	bx	lr

080002cc <vListInsert>:
/*-----------------------------------------------------------*/

void vListInsert( List_t * const pxList, ListItem_t * const pxNewListItem )
{
 80002cc:	b530      	push	{r4, r5, lr}
ListItem_t *pxIterator;
const TickType_t xValueOfInsertion = pxNewListItem->xItemValue;
 80002ce:	680c      	ldr	r4, [r1, #0]
	new list item should be placed after it.  This ensures that TCBs which are
	stored in ready lists (all of which have the same xItemValue value) get a
	share of the CPU.  However, if the xItemValue is the same as the back marker
	the iteration loop below will not end.  Therefore the value is checked
	first, and the algorithm slightly modified if necessary. */
	if( xValueOfInsertion == portMAX_DELAY )
 80002d0:	1c63      	adds	r3, r4, #1
 80002d2:	d10a      	bne.n	80002ea <vListInsert+0x1e>
	{
		pxIterator = pxList->xListEnd.pxPrevious;
 80002d4:	6903      	ldr	r3, [r0, #16]
			/* There is nothing to do here, just iterating to the wanted
			insertion position. */
		}
	}

	pxNewListItem->pxNext = pxIterator->pxNext;
 80002d6:	685a      	ldr	r2, [r3, #4]
 80002d8:	604a      	str	r2, [r1, #4]
	pxNewListItem->pxNext->pxPrevious = pxNewListItem;
 80002da:	6091      	str	r1, [r2, #8]
	pxNewListItem->pxPrevious = pxIterator;
 80002dc:	608b      	str	r3, [r1, #8]
	pxIterator->pxNext = pxNewListItem;
 80002de:	6059      	str	r1, [r3, #4]

	/* Remember which list the item is in.  This allows fast removal of the
	item later. */
	pxNewListItem->pxContainer = pxList;

	( pxList->uxNumberOfItems )++;
 80002e0:	6803      	ldr	r3, [r0, #0]
	pxNewListItem->pxContainer = pxList;
 80002e2:	6108      	str	r0, [r1, #16]
	( pxList->uxNumberOfItems )++;
 80002e4:	3301      	adds	r3, #1
 80002e6:	6003      	str	r3, [r0, #0]
}
 80002e8:	bd30      	pop	{r4, r5, pc}
		for( pxIterator = ( ListItem_t * ) &( pxList->xListEnd ); pxIterator->pxNext->xItemValue <= xValueOfInsertion; pxIterator = pxIterator->pxNext ) /*lint !e826 !e740 !e9087 The mini list structure is used as the list end to save RAM.  This is checked and valid. *//*lint !e440 The iterator moves to a different value, not xValueOfInsertion. */
 80002ea:	f100 0208 	add.w	r2, r0, #8
 80002ee:	4613      	mov	r3, r2
 80002f0:	6852      	ldr	r2, [r2, #4]
 80002f2:	6815      	ldr	r5, [r2, #0]
 80002f4:	42a5      	cmp	r5, r4
 80002f6:	d9fa      	bls.n	80002ee <vListInsert+0x22>
 80002f8:	e7ed      	b.n	80002d6 <vListInsert+0xa>

080002fa <uxListRemove>:

UBaseType_t uxListRemove( ListItem_t * const pxItemToRemove )
{
/* The list item knows which list it is in.  Obtain the list from the list
item. */
List_t * const pxList = pxItemToRemove->pxContainer;
 80002fa:	6903      	ldr	r3, [r0, #16]

	pxItemToRemove->pxNext->pxPrevious = pxItemToRemove->pxPrevious;
 80002fc:	e9d0 1201 	ldrd	r1, r2, [r0, #4]
 8000300:	608a      	str	r2, [r1, #8]
	pxItemToRemove->pxPrevious->pxNext = pxItemToRemove->pxNext;
 8000302:	6051      	str	r1, [r2, #4]

	/* Only used during decision coverage testing. */
	mtCOVERAGE_TEST_DELAY();

	/* Make sure the index is left pointing to a valid item. */
	if( pxList->pxIndex == pxItemToRemove )
 8000304:	6859      	ldr	r1, [r3, #4]
 8000306:	4281      	cmp	r1, r0
	{
		pxList->pxIndex = pxItemToRemove->pxPrevious;
 8000308:	bf08      	it	eq
 800030a:	605a      	streq	r2, [r3, #4]
	else
	{
		mtCOVERAGE_TEST_MARKER();
	}

	pxItemToRemove->pxContainer = NULL;
 800030c:	2200      	movs	r2, #0
 800030e:	6102      	str	r2, [r0, #16]
	( pxList->uxNumberOfItems )--;
 8000310:	681a      	ldr	r2, [r3, #0]
 8000312:	3a01      	subs	r2, #1
 8000314:	601a      	str	r2, [r3, #0]

	return pxList->uxNumberOfItems;
 8000316:	6818      	ldr	r0, [r3, #0]
}
 8000318:	4770      	bx	lr

0800031a <prvTaskExitError>:
}
/*-----------------------------------------------------------*/

static void prvTaskExitError( void )
{
volatile uint32_t ulDummy = 0UL;
 800031a:	2300      	movs	r3, #0
{
 800031c:	b082      	sub	sp, #8
volatile uint32_t ulDummy = 0UL;
 800031e:	9301      	str	r3, [sp, #4]

portFORCE_INLINE static void vPortRaiseBASEPRI( void )
{
uint32_t ulNewBASEPRI;

	__asm volatile
 8000320:	f04f 03bf 	mov.w	r3, #191	; 0xbf
 8000324:	f383 8811 	msr	BASEPRI, r3
 8000328:	f3bf 8f6f 	isb	sy
 800032c:	f3bf 8f4f 	dsb	sy

	Artificially force an assert() to be triggered if configASSERT() is
	defined, then stop here so application writers can catch the error. */
	configASSERT( uxCriticalNesting == ~0UL );
	portDISABLE_INTERRUPTS();
	while( ulDummy == 0 )
 8000330:	9b01      	ldr	r3, [sp, #4]
 8000332:	2b00      	cmp	r3, #0
 8000334:	d0fc      	beq.n	8000330 <prvTaskExitError+0x16>
		about code appearing after this function is called - making ulDummy
		volatile makes the compiler think the function could return and
		therefore not output an 'unreachable code' warning for code that appears
		after it. */
	}
}
 8000336:	b002      	add	sp, #8
 8000338:	4770      	bx	lr
	...

0800033c <prvPortStartFirstTask>:
}
/*-----------------------------------------------------------*/

static void prvPortStartFirstTask( void )
{
	__asm volatile(
 800033c:	4806      	ldr	r0, [pc, #24]	; (8000358 <prvPortStartFirstTask+0x1c>)
 800033e:	6800      	ldr	r0, [r0, #0]
 8000340:	6800      	ldr	r0, [r0, #0]
 8000342:	f380 8808 	msr	MSP, r0
 8000346:	b662      	cpsie	i
 8000348:	b661      	cpsie	f
 800034a:	f3bf 8f4f 	dsb	sy
 800034e:	f3bf 8f6f 	isb	sy
 8000352:	df00      	svc	0
 8000354:	bf00      	nop
					" dsb					\n"
					" isb					\n"
					" svc 0					\n" /* System call to start first task. */
					" nop					\n"
				);
}
 8000356:	0000      	.short	0x0000
 8000358:	e000ed08 	.word	0xe000ed08

0800035c <pxPortInitialiseStack>:
	*pxTopOfStack = portINITIAL_XPSR;	/* xPSR */
 800035c:	f04f 7380 	mov.w	r3, #16777216	; 0x1000000
 8000360:	f840 3c04 	str.w	r3, [r0, #-4]
	*pxTopOfStack = ( StackType_t ) portTASK_RETURN_ADDRESS;	/* LR */
 8000364:	4b05      	ldr	r3, [pc, #20]	; (800037c <pxPortInitialiseStack+0x20>)
	*pxTopOfStack = ( ( StackType_t ) pxCode ) & portSTART_ADDRESS_MASK;	/* PC */
 8000366:	f021 0101 	bic.w	r1, r1, #1
 800036a:	f840 1c08 	str.w	r1, [r0, #-8]
	*pxTopOfStack = ( StackType_t ) portTASK_RETURN_ADDRESS;	/* LR */
 800036e:	f840 3c0c 	str.w	r3, [r0, #-12]
	*pxTopOfStack = ( StackType_t ) pvParameters;	/* R0 */
 8000372:	f840 2c20 	str.w	r2, [r0, #-32]
}
 8000376:	3840      	subs	r0, #64	; 0x40
 8000378:	4770      	bx	lr
 800037a:	bf00      	nop
 800037c:	0800031b 	.word	0x0800031b

08000380 <SVC_Handler>:
	__asm volatile (
 8000380:	4b07      	ldr	r3, [pc, #28]	; (80003a0 <pxCurrentTCBConst2>)
 8000382:	6819      	ldr	r1, [r3, #0]
 8000384:	6808      	ldr	r0, [r1, #0]
 8000386:	e8b0 0ff0 	ldmia.w	r0!, {r4, r5, r6, r7, r8, r9, sl, fp}
 800038a:	f380 8809 	msr	PSP, r0
 800038e:	f3bf 8f6f 	isb	sy
 8000392:	f04f 0000 	mov.w	r0, #0
 8000396:	f380 8811 	msr	BASEPRI, r0
 800039a:	f04e 0e0d 	orr.w	lr, lr, #13
 800039e:	4770      	bx	lr

080003a0 <pxCurrentTCBConst2>:
 80003a0:	200044d0 	.word	0x200044d0

080003a4 <vPortEnterCritical>:
 80003a4:	f04f 03bf 	mov.w	r3, #191	; 0xbf
 80003a8:	f383 8811 	msr	BASEPRI, r3
 80003ac:	f3bf 8f6f 	isb	sy
 80003b0:	f3bf 8f4f 	dsb	sy
/*-----------------------------------------------------------*/

void vPortEnterCritical( void )
{
	portDISABLE_INTERRUPTS();
	uxCriticalNesting++;
 80003b4:	4a02      	ldr	r2, [pc, #8]	; (80003c0 <vPortEnterCritical+0x1c>)
 80003b6:	6813      	ldr	r3, [r2, #0]
 80003b8:	3301      	adds	r3, #1
 80003ba:	6013      	str	r3, [r2, #0]
	assert function also uses a critical section. */
	if( uxCriticalNesting == 1 )
	{
		configASSERT( ( portNVIC_INT_CTRL_REG & portVECTACTIVE_MASK ) == 0 );
	}
}
 80003bc:	4770      	bx	lr
 80003be:	bf00      	nop
 80003c0:	20000004 	.word	0x20000004

080003c4 <vPortExitCritical>:
/*-----------------------------------------------------------*/

void vPortExitCritical( void )
{
	configASSERT( uxCriticalNesting );
	uxCriticalNesting--;
 80003c4:	4a03      	ldr	r2, [pc, #12]	; (80003d4 <vPortExitCritical+0x10>)
 80003c6:	6813      	ldr	r3, [r2, #0]
 80003c8:	3b01      	subs	r3, #1
 80003ca:	6013      	str	r3, [r2, #0]
	if( uxCriticalNesting == 0 )
 80003cc:	b90b      	cbnz	r3, 80003d2 <vPortExitCritical+0xe>
}
/*-----------------------------------------------------------*/

portFORCE_INLINE static void vPortSetBASEPRI( uint32_t ulNewMaskValue )
{
	__asm volatile
 80003ce:	f383 8811 	msr	BASEPRI, r3
	{
		portENABLE_INTERRUPTS();
	}
}
 80003d2:	4770      	bx	lr
 80003d4:	20000004 	.word	0x20000004
	...

080003e0 <PendSV_Handler>:

void xPortPendSVHandler( void )
{
	/* This is a naked function. */

	__asm volatile
 80003e0:	f3ef 8009 	mrs	r0, PSP
 80003e4:	f3bf 8f6f 	isb	sy
 80003e8:	4b0d      	ldr	r3, [pc, #52]	; (8000420 <pxCurrentTCBConst>)
 80003ea:	681a      	ldr	r2, [r3, #0]
 80003ec:	e920 0ff0 	stmdb	r0!, {r4, r5, r6, r7, r8, r9, sl, fp}
 80003f0:	6010      	str	r0, [r2, #0]
 80003f2:	e92d 4008 	stmdb	sp!, {r3, lr}
 80003f6:	f04f 00bf 	mov.w	r0, #191	; 0xbf
 80003fa:	f380 8811 	msr	BASEPRI, r0
 80003fe:	f000 fdb5 	bl	8000f6c <vTaskSwitchContext>
 8000402:	f04f 0000 	mov.w	r0, #0
 8000406:	f380 8811 	msr	BASEPRI, r0
 800040a:	e8bd 4008 	ldmia.w	sp!, {r3, lr}
 800040e:	6819      	ldr	r1, [r3, #0]
 8000410:	6808      	ldr	r0, [r1, #0]
 8000412:	e8b0 0ff0 	ldmia.w	r0!, {r4, r5, r6, r7, r8, r9, sl, fp}
 8000416:	f380 8809 	msr	PSP, r0
 800041a:	f3bf 8f6f 	isb	sy
 800041e:	4770      	bx	lr

08000420 <pxCurrentTCBConst>:
 8000420:	200044d0 	.word	0x200044d0

08000424 <SysTick_Handler>:
	);
}
/*-----------------------------------------------------------*/

void xPortSysTickHandler( void )
{
 8000424:	b508      	push	{r3, lr}
	__asm volatile
 8000426:	f04f 03bf 	mov.w	r3, #191	; 0xbf
 800042a:	f383 8811 	msr	BASEPRI, r3
 800042e:	f3bf 8f6f 	isb	sy
 8000432:	f3bf 8f4f 	dsb	sy
	save and then restore the interrupt mask value as its value is already
	known. */
	portDISABLE_INTERRUPTS();
	{
		/* Increment the RTOS tick. */
		if( xTaskIncrementTick() != pdFALSE )
 8000436:	f000 fcad 	bl	8000d94 <xTaskIncrementTick>
 800043a:	b118      	cbz	r0, 8000444 <SysTick_Handler+0x20>
		{
			/* A context switch is required.  Context switching is performed in
			the PendSV interrupt.  Pend the PendSV interrupt. */
			portNVIC_INT_CTRL_REG = portNVIC_PENDSVSET_BIT;
 800043c:	f04f 5280 	mov.w	r2, #268435456	; 0x10000000
 8000440:	4b02      	ldr	r3, [pc, #8]	; (800044c <SysTick_Handler+0x28>)
 8000442:	601a      	str	r2, [r3, #0]
	__asm volatile
 8000444:	2300      	movs	r3, #0
 8000446:	f383 8811 	msr	BASEPRI, r3
		}
	}
	portENABLE_INTERRUPTS();
}
 800044a:	bd08      	pop	{r3, pc}
 800044c:	e000ed04 	.word	0xe000ed04

08000450 <vPortSetupTimerInterrupt>:
		ulStoppedTimerCompensation = portMISSED_COUNTS_FACTOR / ( configCPU_CLOCK_HZ / configSYSTICK_CLOCK_HZ );
	}
	#endif /* configUSE_TICKLESS_IDLE */

	/* Stop and clear the SysTick. */
	portNVIC_SYSTICK_CTRL_REG = 0UL;
 8000450:	2200      	movs	r2, #0
 8000452:	4b05      	ldr	r3, [pc, #20]	; (8000468 <vPortSetupTimerInterrupt+0x18>)
	portNVIC_SYSTICK_CURRENT_VALUE_REG = 0UL;
 8000454:	4905      	ldr	r1, [pc, #20]	; (800046c <vPortSetupTimerInterrupt+0x1c>)
	portNVIC_SYSTICK_CTRL_REG = 0UL;
 8000456:	601a      	str	r2, [r3, #0]
	portNVIC_SYSTICK_CURRENT_VALUE_REG = 0UL;
 8000458:	600a      	str	r2, [r1, #0]

	/* Configure SysTick to interrupt at the requested rate. */
	portNVIC_SYSTICK_LOAD_REG = ( configSYSTICK_CLOCK_HZ / configTICK_RATE_HZ ) - 1UL;
 800045a:	4a05      	ldr	r2, [pc, #20]	; (8000470 <vPortSetupTimerInterrupt+0x20>)
 800045c:	4905      	ldr	r1, [pc, #20]	; (8000474 <vPortSetupTimerInterrupt+0x24>)
 800045e:	6011      	str	r1, [r2, #0]
	portNVIC_SYSTICK_CTRL_REG = ( portNVIC_SYSTICK_CLK_BIT | portNVIC_SYSTICK_INT_BIT | portNVIC_SYSTICK_ENABLE_BIT );
 8000460:	2207      	movs	r2, #7
 8000462:	601a      	str	r2, [r3, #0]
}
 8000464:	4770      	bx	lr
 8000466:	bf00      	nop
 8000468:	e000e010 	.word	0xe000e010
 800046c:	e000e018 	.word	0xe000e018
 8000470:	e000e014 	.word	0xe000e014
 8000474:	0001193f 	.word	0x0001193f

08000478 <xPortStartScheduler>:
{
 8000478:	b510      	push	{r4, lr}
	uxCriticalNesting = 0;
 800047a:	2400      	movs	r4, #0
	portNVIC_SYSPRI2_REG |= portNVIC_PENDSV_PRI;
 800047c:	4b0a      	ldr	r3, [pc, #40]	; (80004a8 <xPortStartScheduler+0x30>)
 800047e:	681a      	ldr	r2, [r3, #0]
 8000480:	f442 027f 	orr.w	r2, r2, #16711680	; 0xff0000
 8000484:	601a      	str	r2, [r3, #0]
	portNVIC_SYSPRI2_REG |= portNVIC_SYSTICK_PRI;
 8000486:	681a      	ldr	r2, [r3, #0]
 8000488:	f042 427f 	orr.w	r2, r2, #4278190080	; 0xff000000
 800048c:	601a      	str	r2, [r3, #0]
	vPortSetupTimerInterrupt();
 800048e:	f7ff ffdf 	bl	8000450 <vPortSetupTimerInterrupt>
	uxCriticalNesting = 0;
 8000492:	4b06      	ldr	r3, [pc, #24]	; (80004ac <xPortStartScheduler+0x34>)
 8000494:	601c      	str	r4, [r3, #0]
	prvPortStartFirstTask();
 8000496:	f7ff ff51 	bl	800033c <prvPortStartFirstTask>
	vTaskSwitchContext();
 800049a:	f000 fd67 	bl	8000f6c <vTaskSwitchContext>
	prvTaskExitError();
 800049e:	f7ff ff3c 	bl	800031a <prvTaskExitError>
}
 80004a2:	4620      	mov	r0, r4
 80004a4:	bd10      	pop	{r4, pc}
 80004a6:	bf00      	nop
 80004a8:	e000ed20 	.word	0xe000ed20
 80004ac:	20000004 	.word	0x20000004

080004b0 <prvIsQueueEmpty>:
	taskEXIT_CRITICAL();
}
/*-----------------------------------------------------------*/

static BaseType_t prvIsQueueEmpty( const Queue_t *pxQueue )
{
 80004b0:	b510      	push	{r4, lr}
 80004b2:	4604      	mov	r4, r0
BaseType_t xReturn;

	taskENTER_CRITICAL();
 80004b4:	f7ff ff76 	bl	80003a4 <vPortEnterCritical>
	{
		if( pxQueue->uxMessagesWaiting == ( UBaseType_t )  0 )
 80004b8:	6ba4      	ldr	r4, [r4, #56]	; 0x38
		else
		{
			xReturn = pdFALSE;
		}
	}
	taskEXIT_CRITICAL();
 80004ba:	f7ff ff83 	bl	80003c4 <vPortExitCritical>

	return xReturn;
}
 80004be:	fab4 f084 	clz	r0, r4
 80004c2:	0940      	lsrs	r0, r0, #5
 80004c4:	bd10      	pop	{r4, pc}

080004c6 <prvCopyDataToQueue>:
{
 80004c6:	b5f8      	push	{r3, r4, r5, r6, r7, lr}
 80004c8:	4615      	mov	r5, r2
	if( pxQueue->uxItemSize == ( UBaseType_t ) 0 )
 80004ca:	6c02      	ldr	r2, [r0, #64]	; 0x40
{
 80004cc:	4604      	mov	r4, r0
	uxMessagesWaiting = pxQueue->uxMessagesWaiting;
 80004ce:	6b86      	ldr	r6, [r0, #56]	; 0x38
	if( pxQueue->uxItemSize == ( UBaseType_t ) 0 )
 80004d0:	b952      	cbnz	r2, 80004e8 <prvCopyDataToQueue+0x22>
			if( pxQueue->uxQueueType == queueQUEUE_IS_MUTEX )
 80004d2:	6807      	ldr	r7, [r0, #0]
 80004d4:	bb47      	cbnz	r7, 8000528 <prvCopyDataToQueue+0x62>
				xReturn = xTaskPriorityDisinherit( pxQueue->u.xSemaphore.xMutexHolder );
 80004d6:	6880      	ldr	r0, [r0, #8]
 80004d8:	f000 fe8a 	bl	80011f0 <xTaskPriorityDisinherit>
 80004dc:	4605      	mov	r5, r0
				pxQueue->u.xSemaphore.xMutexHolder = NULL;
 80004de:	60a7      	str	r7, [r4, #8]
	pxQueue->uxMessagesWaiting = uxMessagesWaiting + ( UBaseType_t ) 1;
 80004e0:	3601      	adds	r6, #1
}
 80004e2:	4628      	mov	r0, r5
	pxQueue->uxMessagesWaiting = uxMessagesWaiting + ( UBaseType_t ) 1;
 80004e4:	63a6      	str	r6, [r4, #56]	; 0x38
}
 80004e6:	bdf8      	pop	{r3, r4, r5, r6, r7, pc}
	else if( xPosition == queueSEND_TO_BACK )
 80004e8:	b965      	cbnz	r5, 8000504 <prvCopyDataToQueue+0x3e>
		( void ) memcpy( ( void * ) pxQueue->pcWriteTo, pvItemToQueue, ( size_t ) pxQueue->uxItemSize ); /*lint !e961 !e418 !e9087 MISRA exception as the casts are only redundant for some ports, plus previous logic ensures a null pointer can only be passed to memcpy() if the copy size is 0.  Cast to void required by function signature and safe as no alignment requirement and copy length specified in bytes. */
 80004ea:	6840      	ldr	r0, [r0, #4]
 80004ec:	f002 fbf2 	bl	8002cd4 <memcpy>
		pxQueue->pcWriteTo += pxQueue->uxItemSize; /*lint !e9016 Pointer arithmetic on char types ok, especially in this use case where it is the clearest way of conveying intent. */
 80004f0:	6863      	ldr	r3, [r4, #4]
 80004f2:	6c22      	ldr	r2, [r4, #64]	; 0x40
 80004f4:	4413      	add	r3, r2
		if( pxQueue->pcWriteTo >= pxQueue->u.xQueue.pcTail ) /*lint !e946 MISRA exception justified as comparison of pointers is the cleanest solution. */
 80004f6:	68a2      	ldr	r2, [r4, #8]
		pxQueue->pcWriteTo += pxQueue->uxItemSize; /*lint !e9016 Pointer arithmetic on char types ok, especially in this use case where it is the clearest way of conveying intent. */
 80004f8:	6063      	str	r3, [r4, #4]
		if( pxQueue->pcWriteTo >= pxQueue->u.xQueue.pcTail ) /*lint !e946 MISRA exception justified as comparison of pointers is the cleanest solution. */
 80004fa:	4293      	cmp	r3, r2
 80004fc:	d3f0      	bcc.n	80004e0 <prvCopyDataToQueue+0x1a>
			pxQueue->pcWriteTo = pxQueue->pcHead;
 80004fe:	6823      	ldr	r3, [r4, #0]
 8000500:	6063      	str	r3, [r4, #4]
 8000502:	e7ed      	b.n	80004e0 <prvCopyDataToQueue+0x1a>
		( void ) memcpy( ( void * ) pxQueue->u.xQueue.pcReadFrom, pvItemToQueue, ( size_t ) pxQueue->uxItemSize ); /*lint !e961 !e9087 !e418 MISRA exception as the casts are only redundant for some ports.  Cast to void required by function signature and safe as no alignment requirement and copy length specified in bytes.  Assert checks null pointer only used when length is 0. */
 8000504:	68c0      	ldr	r0, [r0, #12]
 8000506:	f002 fbe5 	bl	8002cd4 <memcpy>
		pxQueue->u.xQueue.pcReadFrom -= pxQueue->uxItemSize;
 800050a:	6c22      	ldr	r2, [r4, #64]	; 0x40
 800050c:	68e3      	ldr	r3, [r4, #12]
 800050e:	4251      	negs	r1, r2
 8000510:	1a9b      	subs	r3, r3, r2
		if( pxQueue->u.xQueue.pcReadFrom < pxQueue->pcHead ) /*lint !e946 MISRA exception justified as comparison of pointers is the cleanest solution. */
 8000512:	6822      	ldr	r2, [r4, #0]
		pxQueue->u.xQueue.pcReadFrom -= pxQueue->uxItemSize;
 8000514:	60e3      	str	r3, [r4, #12]
		if( pxQueue->u.xQueue.pcReadFrom < pxQueue->pcHead ) /*lint !e946 MISRA exception justified as comparison of pointers is the cleanest solution. */
 8000516:	4293      	cmp	r3, r2
			pxQueue->u.xQueue.pcReadFrom = ( pxQueue->u.xQueue.pcTail - pxQueue->uxItemSize );
 8000518:	bf3e      	ittt	cc
 800051a:	68a3      	ldrcc	r3, [r4, #8]
 800051c:	185b      	addcc	r3, r3, r1
 800051e:	60e3      	strcc	r3, [r4, #12]
		if( xPosition == queueOVERWRITE )
 8000520:	2d02      	cmp	r5, #2
 8000522:	d101      	bne.n	8000528 <prvCopyDataToQueue+0x62>
			if( uxMessagesWaiting > ( UBaseType_t ) 0 )
 8000524:	b116      	cbz	r6, 800052c <prvCopyDataToQueue+0x66>
				--uxMessagesWaiting;
 8000526:	3e01      	subs	r6, #1
BaseType_t xReturn = pdFALSE;
 8000528:	2500      	movs	r5, #0
 800052a:	e7d9      	b.n	80004e0 <prvCopyDataToQueue+0x1a>
 800052c:	4635      	mov	r5, r6
 800052e:	e7d7      	b.n	80004e0 <prvCopyDataToQueue+0x1a>

08000530 <prvCopyDataFromQueue>:
{
 8000530:	4603      	mov	r3, r0
	if( pxQueue->uxItemSize != ( UBaseType_t ) 0 )
 8000532:	6c1a      	ldr	r2, [r3, #64]	; 0x40
{
 8000534:	4608      	mov	r0, r1
 8000536:	b410      	push	{r4}
	if( pxQueue->uxItemSize != ( UBaseType_t ) 0 )
 8000538:	b162      	cbz	r2, 8000554 <prvCopyDataFromQueue+0x24>
		pxQueue->u.xQueue.pcReadFrom += pxQueue->uxItemSize; /*lint !e9016 Pointer arithmetic on char types ok, especially in this use case where it is the clearest way of conveying intent. */
 800053a:	68dc      	ldr	r4, [r3, #12]
		if( pxQueue->u.xQueue.pcReadFrom >= pxQueue->u.xQueue.pcTail ) /*lint !e946 MISRA exception justified as use of the relational operator is the cleanest solutions. */
 800053c:	6899      	ldr	r1, [r3, #8]
		pxQueue->u.xQueue.pcReadFrom += pxQueue->uxItemSize; /*lint !e9016 Pointer arithmetic on char types ok, especially in this use case where it is the clearest way of conveying intent. */
 800053e:	4414      	add	r4, r2
		if( pxQueue->u.xQueue.pcReadFrom >= pxQueue->u.xQueue.pcTail ) /*lint !e946 MISRA exception justified as use of the relational operator is the cleanest solutions. */
 8000540:	428c      	cmp	r4, r1
			pxQueue->u.xQueue.pcReadFrom = pxQueue->pcHead;
 8000542:	bf28      	it	cs
 8000544:	6819      	ldrcs	r1, [r3, #0]
		pxQueue->u.xQueue.pcReadFrom += pxQueue->uxItemSize; /*lint !e9016 Pointer arithmetic on char types ok, especially in this use case where it is the clearest way of conveying intent. */
 8000546:	60dc      	str	r4, [r3, #12]
			pxQueue->u.xQueue.pcReadFrom = pxQueue->pcHead;
 8000548:	bf28      	it	cs
 800054a:	60d9      	strcs	r1, [r3, #12]
		( void ) memcpy( ( void * ) pvBuffer, ( void * ) pxQueue->u.xQueue.pcReadFrom, ( size_t ) pxQueue->uxItemSize ); /*lint !e961 !e418 !e9087 MISRA exception as the casts are only redundant for some ports.  Also previous logic ensures a null pointer can only be passed to memcpy() when the count is 0.  Cast to void required by function signature and safe as no alignment requirement and copy length specified in bytes. */
 800054c:	68d9      	ldr	r1, [r3, #12]
}
 800054e:	bc10      	pop	{r4}
		( void ) memcpy( ( void * ) pvBuffer, ( void * ) pxQueue->u.xQueue.pcReadFrom, ( size_t ) pxQueue->uxItemSize ); /*lint !e961 !e418 !e9087 MISRA exception as the casts are only redundant for some ports.  Also previous logic ensures a null pointer can only be passed to memcpy() when the count is 0.  Cast to void required by function signature and safe as no alignment requirement and copy length specified in bytes. */
 8000550:	f002 bbc0 	b.w	8002cd4 <memcpy>
}
 8000554:	bc10      	pop	{r4}
 8000556:	4770      	bx	lr

08000558 <prvUnlockQueue>:
{
 8000558:	b570      	push	{r4, r5, r6, lr}
 800055a:	4604      	mov	r4, r0
	taskENTER_CRITICAL();
 800055c:	f7ff ff22 	bl	80003a4 <vPortEnterCritical>
		int8_t cTxLock = pxQueue->cTxLock;
 8000560:	f894 5045 	ldrb.w	r5, [r4, #69]	; 0x45
					if( xTaskRemoveFromEventList( &( pxQueue->xTasksWaitingToReceive ) ) != pdFALSE )
 8000564:	f104 0624 	add.w	r6, r4, #36	; 0x24
		int8_t cTxLock = pxQueue->cTxLock;
 8000568:	b26d      	sxtb	r5, r5
		while( cTxLock > queueLOCKED_UNMODIFIED )
 800056a:	2d00      	cmp	r5, #0
 800056c:	dc14      	bgt.n	8000598 <prvUnlockQueue+0x40>
		pxQueue->cTxLock = queueUNLOCKED;
 800056e:	23ff      	movs	r3, #255	; 0xff
 8000570:	f884 3045 	strb.w	r3, [r4, #69]	; 0x45
	taskEXIT_CRITICAL();
 8000574:	f7ff ff26 	bl	80003c4 <vPortExitCritical>
	taskENTER_CRITICAL();
 8000578:	f7ff ff14 	bl	80003a4 <vPortEnterCritical>
		int8_t cRxLock = pxQueue->cRxLock;
 800057c:	f894 5044 	ldrb.w	r5, [r4, #68]	; 0x44
				if( xTaskRemoveFromEventList( &( pxQueue->xTasksWaitingToSend ) ) != pdFALSE )
 8000580:	f104 0610 	add.w	r6, r4, #16
		int8_t cRxLock = pxQueue->cRxLock;
 8000584:	b26d      	sxtb	r5, r5
		while( cRxLock > queueLOCKED_UNMODIFIED )
 8000586:	2d00      	cmp	r5, #0
 8000588:	dc12      	bgt.n	80005b0 <prvUnlockQueue+0x58>
		pxQueue->cRxLock = queueUNLOCKED;
 800058a:	23ff      	movs	r3, #255	; 0xff
 800058c:	f884 3044 	strb.w	r3, [r4, #68]	; 0x44
}
 8000590:	e8bd 4070 	ldmia.w	sp!, {r4, r5, r6, lr}
	taskEXIT_CRITICAL();
 8000594:	f7ff bf16 	b.w	80003c4 <vPortExitCritical>
				if( listLIST_IS_EMPTY( &( pxQueue->xTasksWaitingToReceive ) ) == pdFALSE )
 8000598:	6a63      	ldr	r3, [r4, #36]	; 0x24
 800059a:	2b00      	cmp	r3, #0
 800059c:	d0e7      	beq.n	800056e <prvUnlockQueue+0x16>
					if( xTaskRemoveFromEventList( &( pxQueue->xTasksWaitingToReceive ) ) != pdFALSE )
 800059e:	4630      	mov	r0, r6
 80005a0:	f000 fd70 	bl	8001084 <xTaskRemoveFromEventList>
 80005a4:	b108      	cbz	r0, 80005aa <prvUnlockQueue+0x52>
						vTaskMissedYield();
 80005a6:	f000 fdcb 	bl	8001140 <vTaskMissedYield>
			--cTxLock;
 80005aa:	3d01      	subs	r5, #1
 80005ac:	b26d      	sxtb	r5, r5
 80005ae:	e7dc      	b.n	800056a <prvUnlockQueue+0x12>
			if( listLIST_IS_EMPTY( &( pxQueue->xTasksWaitingToSend ) ) == pdFALSE )
 80005b0:	6923      	ldr	r3, [r4, #16]
 80005b2:	2b00      	cmp	r3, #0
 80005b4:	d0e9      	beq.n	800058a <prvUnlockQueue+0x32>
				if( xTaskRemoveFromEventList( &( pxQueue->xTasksWaitingToSend ) ) != pdFALSE )
 80005b6:	4630      	mov	r0, r6
 80005b8:	f000 fd64 	bl	8001084 <xTaskRemoveFromEventList>
 80005bc:	b108      	cbz	r0, 80005c2 <prvUnlockQueue+0x6a>
					vTaskMissedYield();
 80005be:	f000 fdbf 	bl	8001140 <vTaskMissedYield>
				--cRxLock;
 80005c2:	3d01      	subs	r5, #1
 80005c4:	b26d      	sxtb	r5, r5
 80005c6:	e7de      	b.n	8000586 <prvUnlockQueue+0x2e>

080005c8 <xQueueGenericReset>:
{
 80005c8:	b538      	push	{r3, r4, r5, lr}
 80005ca:	4604      	mov	r4, r0
 80005cc:	460d      	mov	r5, r1
	taskENTER_CRITICAL();
 80005ce:	f7ff fee9 	bl	80003a4 <vPortEnterCritical>
		pxQueue->u.xQueue.pcTail = pxQueue->pcHead + ( pxQueue->uxLength * pxQueue->uxItemSize ); /*lint !e9016 Pointer arithmetic allowed on char types, especially when it assists conveying intent. */
 80005d2:	e9d4 310f 	ldrd	r3, r1, [r4, #60]	; 0x3c
 80005d6:	434b      	muls	r3, r1
 80005d8:	6822      	ldr	r2, [r4, #0]
 80005da:	18d0      	adds	r0, r2, r3
		pxQueue->u.xQueue.pcReadFrom = pxQueue->pcHead + ( ( pxQueue->uxLength - 1U ) * pxQueue->uxItemSize ); /*lint !e9016 Pointer arithmetic allowed on char types, especially when it assists conveying intent. */
 80005dc:	1a5b      	subs	r3, r3, r1
 80005de:	4413      	add	r3, r2
		pxQueue->u.xQueue.pcTail = pxQueue->pcHead + ( pxQueue->uxLength * pxQueue->uxItemSize ); /*lint !e9016 Pointer arithmetic allowed on char types, especially when it assists conveying intent. */
 80005e0:	60a0      	str	r0, [r4, #8]
		pxQueue->u.xQueue.pcReadFrom = pxQueue->pcHead + ( ( pxQueue->uxLength - 1U ) * pxQueue->uxItemSize ); /*lint !e9016 Pointer arithmetic allowed on char types, especially when it assists conveying intent. */
 80005e2:	60e3      	str	r3, [r4, #12]
		pxQueue->uxMessagesWaiting = ( UBaseType_t ) 0U;
 80005e4:	2000      	movs	r0, #0
		pxQueue->cRxLock = queueUNLOCKED;
 80005e6:	23ff      	movs	r3, #255	; 0xff
		pxQueue->uxMessagesWaiting = ( UBaseType_t ) 0U;
 80005e8:	63a0      	str	r0, [r4, #56]	; 0x38
		pxQueue->pcWriteTo = pxQueue->pcHead;
 80005ea:	6062      	str	r2, [r4, #4]
		pxQueue->cRxLock = queueUNLOCKED;
 80005ec:	f884 3044 	strb.w	r3, [r4, #68]	; 0x44
		pxQueue->cTxLock = queueUNLOCKED;
 80005f0:	f884 3045 	strb.w	r3, [r4, #69]	; 0x45
		if( xNewQueue == pdFALSE )
 80005f4:	b995      	cbnz	r5, 800061c <xQueueGenericReset+0x54>
			if( listLIST_IS_EMPTY( &( pxQueue->xTasksWaitingToSend ) ) == pdFALSE )
 80005f6:	6923      	ldr	r3, [r4, #16]
 80005f8:	b163      	cbz	r3, 8000614 <xQueueGenericReset+0x4c>
				if( xTaskRemoveFromEventList( &( pxQueue->xTasksWaitingToSend ) ) != pdFALSE )
 80005fa:	f104 0010 	add.w	r0, r4, #16
 80005fe:	f000 fd41 	bl	8001084 <xTaskRemoveFromEventList>
 8000602:	b138      	cbz	r0, 8000614 <xQueueGenericReset+0x4c>
					queueYIELD_IF_USING_PREEMPTION();
 8000604:	f04f 5280 	mov.w	r2, #268435456	; 0x10000000
 8000608:	4b09      	ldr	r3, [pc, #36]	; (8000630 <xQueueGenericReset+0x68>)
 800060a:	601a      	str	r2, [r3, #0]
 800060c:	f3bf 8f4f 	dsb	sy
 8000610:	f3bf 8f6f 	isb	sy
	taskEXIT_CRITICAL();
 8000614:	f7ff fed6 	bl	80003c4 <vPortExitCritical>
}
 8000618:	2001      	movs	r0, #1
 800061a:	bd38      	pop	{r3, r4, r5, pc}
			vListInitialise( &( pxQueue->xTasksWaitingToSend ) );
 800061c:	f104 0010 	add.w	r0, r4, #16
 8000620:	f7ff fe3a 	bl	8000298 <vListInitialise>
			vListInitialise( &( pxQueue->xTasksWaitingToReceive ) );
 8000624:	f104 0024 	add.w	r0, r4, #36	; 0x24
 8000628:	f7ff fe36 	bl	8000298 <vListInitialise>
 800062c:	e7f2      	b.n	8000614 <xQueueGenericReset+0x4c>
 800062e:	bf00      	nop
 8000630:	e000ed04 	.word	0xe000ed04

08000634 <xQueueGenericCreate>:
	{
 8000634:	b570      	push	{r4, r5, r6, lr}
 8000636:	4606      	mov	r6, r0
			xQueueSizeInBytes = ( size_t ) ( uxQueueLength * uxItemSize ); /*lint !e961 MISRA exception as the casts are only redundant for some ports. */
 8000638:	4348      	muls	r0, r1
		pxNewQueue = ( Queue_t * ) pvPortMalloc( sizeof( Queue_t ) + xQueueSizeInBytes ); /*lint !e9087 !e9079 see comment above. */
 800063a:	3048      	adds	r0, #72	; 0x48
	{
 800063c:	460d      	mov	r5, r1
		pxNewQueue = ( Queue_t * ) pvPortMalloc( sizeof( Queue_t ) + xQueueSizeInBytes ); /*lint !e9087 !e9079 see comment above. */
 800063e:	f7ff fdb5 	bl	80001ac <pvPortMalloc>
		if( pxNewQueue != NULL )
 8000642:	4604      	mov	r4, r0
 8000644:	b148      	cbz	r0, 800065a <xQueueGenericCreate+0x26>
	if( uxItemSize == ( UBaseType_t ) 0 )
 8000646:	b155      	cbz	r5, 800065e <xQueueGenericCreate+0x2a>
			pucQueueStorage += sizeof( Queue_t ); /*lint !e9016 Pointer arithmetic allowed on char types, especially when it assists conveying intent. */
 8000648:	f100 0348 	add.w	r3, r0, #72	; 0x48
	( void ) xQueueGenericReset( pxNewQueue, pdTRUE );
 800064c:	2101      	movs	r1, #1
 800064e:	4620      	mov	r0, r4
	pxNewQueue->uxItemSize = uxItemSize;
 8000650:	e9c4 650f 	strd	r6, r5, [r4, #60]	; 0x3c
 8000654:	6023      	str	r3, [r4, #0]
	( void ) xQueueGenericReset( pxNewQueue, pdTRUE );
 8000656:	f7ff ffb7 	bl	80005c8 <xQueueGenericReset>
	}
 800065a:	4620      	mov	r0, r4
 800065c:	bd70      	pop	{r4, r5, r6, pc}
 800065e:	4603      	mov	r3, r0
 8000660:	e7f4      	b.n	800064c <xQueueGenericCreate+0x18>
	...

08000664 <xQueueGenericSend>:
{
 8000664:	e92d 47ff 	stmdb	sp!, {r0, r1, r2, r3, r4, r5, r6, r7, r8, r9, sl, lr}
BaseType_t xEntryTimeSet = pdFALSE, xYieldRequired;
 8000668:	f04f 0800 	mov.w	r8, #0
{
 800066c:	4604      	mov	r4, r0
 800066e:	460f      	mov	r7, r1
 8000670:	461e      	mov	r6, r3
		prvLockQueue( pxQueue );
 8000672:	46c1      	mov	r9, r8
					portYIELD_WITHIN_API();
 8000674:	f8df a0ec 	ldr.w	sl, [pc, #236]	; 8000764 <xQueueGenericSend+0x100>
{
 8000678:	9201      	str	r2, [sp, #4]
		taskENTER_CRITICAL();
 800067a:	f7ff fe93 	bl	80003a4 <vPortEnterCritical>
			if( ( pxQueue->uxMessagesWaiting < pxQueue->uxLength ) || ( xCopyPosition == queueOVERWRITE ) )
 800067e:	6ba2      	ldr	r2, [r4, #56]	; 0x38
 8000680:	6be3      	ldr	r3, [r4, #60]	; 0x3c
 8000682:	429a      	cmp	r2, r3
 8000684:	d301      	bcc.n	800068a <xQueueGenericSend+0x26>
 8000686:	2e02      	cmp	r6, #2
 8000688:	d119      	bne.n	80006be <xQueueGenericSend+0x5a>
					xYieldRequired = prvCopyDataToQueue( pxQueue, pvItemToQueue, xCopyPosition );
 800068a:	4632      	mov	r2, r6
 800068c:	4639      	mov	r1, r7
 800068e:	4620      	mov	r0, r4
 8000690:	f7ff ff19 	bl	80004c6 <prvCopyDataToQueue>
					if( listLIST_IS_EMPTY( &( pxQueue->xTasksWaitingToReceive ) ) == pdFALSE )
 8000694:	6a63      	ldr	r3, [r4, #36]	; 0x24
 8000696:	b11b      	cbz	r3, 80006a0 <xQueueGenericSend+0x3c>
						if( xTaskRemoveFromEventList( &( pxQueue->xTasksWaitingToReceive ) ) != pdFALSE )
 8000698:	f104 0024 	add.w	r0, r4, #36	; 0x24
 800069c:	f000 fcf2 	bl	8001084 <xTaskRemoveFromEventList>
					else if( xYieldRequired != pdFALSE )
 80006a0:	b138      	cbz	r0, 80006b2 <xQueueGenericSend+0x4e>
						queueYIELD_IF_USING_PREEMPTION();
 80006a2:	f04f 5280 	mov.w	r2, #268435456	; 0x10000000
 80006a6:	4b2f      	ldr	r3, [pc, #188]	; (8000764 <xQueueGenericSend+0x100>)
 80006a8:	601a      	str	r2, [r3, #0]
 80006aa:	f3bf 8f4f 	dsb	sy
 80006ae:	f3bf 8f6f 	isb	sy
				taskEXIT_CRITICAL();
 80006b2:	f7ff fe87 	bl	80003c4 <vPortExitCritical>
				return pdPASS;
 80006b6:	2001      	movs	r0, #1
}
 80006b8:	b004      	add	sp, #16
 80006ba:	e8bd 87f0 	ldmia.w	sp!, {r4, r5, r6, r7, r8, r9, sl, pc}
				if( xTicksToWait == ( TickType_t ) 0 )
 80006be:	9d01      	ldr	r5, [sp, #4]
 80006c0:	b91d      	cbnz	r5, 80006ca <xQueueGenericSend+0x66>
					taskEXIT_CRITICAL();
 80006c2:	f7ff fe7f 	bl	80003c4 <vPortExitCritical>
			return errQUEUE_FULL;
 80006c6:	2000      	movs	r0, #0
 80006c8:	e7f6      	b.n	80006b8 <xQueueGenericSend+0x54>
				else if( xEntryTimeSet == pdFALSE )
 80006ca:	f1b8 0f00 	cmp.w	r8, #0
 80006ce:	d102      	bne.n	80006d6 <xQueueGenericSend+0x72>
					vTaskInternalSetTimeOutState( &xTimeOut );
 80006d0:	a802      	add	r0, sp, #8
 80006d2:	f000 fd05 	bl	80010e0 <vTaskInternalSetTimeOutState>
		taskEXIT_CRITICAL();
 80006d6:	f7ff fe75 	bl	80003c4 <vPortExitCritical>
		vTaskSuspendAll();
 80006da:	f000 fb4b 	bl	8000d74 <vTaskSuspendAll>
		prvLockQueue( pxQueue );
 80006de:	f7ff fe61 	bl	80003a4 <vPortEnterCritical>
 80006e2:	f894 3044 	ldrb.w	r3, [r4, #68]	; 0x44
 80006e6:	2bff      	cmp	r3, #255	; 0xff
 80006e8:	bf08      	it	eq
 80006ea:	f884 9044 	strbeq.w	r9, [r4, #68]	; 0x44
 80006ee:	f894 3045 	ldrb.w	r3, [r4, #69]	; 0x45
 80006f2:	2bff      	cmp	r3, #255	; 0xff
 80006f4:	bf08      	it	eq
 80006f6:	f884 9045 	strbeq.w	r9, [r4, #69]	; 0x45
 80006fa:	f7ff fe63 	bl	80003c4 <vPortExitCritical>
		if( xTaskCheckForTimeOut( &xTimeOut, &xTicksToWait ) == pdFALSE )
 80006fe:	a901      	add	r1, sp, #4
 8000700:	a802      	add	r0, sp, #8
 8000702:	f000 fcf7 	bl	80010f4 <xTaskCheckForTimeOut>
 8000706:	bb30      	cbnz	r0, 8000756 <xQueueGenericSend+0xf2>

static BaseType_t prvIsQueueFull( const Queue_t *pxQueue )
{
BaseType_t xReturn;

	taskENTER_CRITICAL();
 8000708:	f7ff fe4c 	bl	80003a4 <vPortEnterCritical>
	{
		if( pxQueue->uxMessagesWaiting == pxQueue->uxLength )
 800070c:	6ba2      	ldr	r2, [r4, #56]	; 0x38
 800070e:	6be3      	ldr	r3, [r4, #60]	; 0x3c
 8000710:	429a      	cmp	r2, r3
 8000712:	d10f      	bne.n	8000734 <xQueueGenericSend+0xd0>
		else
		{
			xReturn = pdFALSE;
		}
	}
	taskEXIT_CRITICAL();
 8000714:	f7ff fe56 	bl	80003c4 <vPortExitCritical>
				vTaskPlaceOnEventList( &( pxQueue->xTasksWaitingToSend ), xTicksToWait );
 8000718:	9901      	ldr	r1, [sp, #4]
 800071a:	f104 0010 	add.w	r0, r4, #16
 800071e:	f000 fca1 	bl	8001064 <vTaskPlaceOnEventList>
				prvUnlockQueue( pxQueue );
 8000722:	4620      	mov	r0, r4
 8000724:	f7ff ff18 	bl	8000558 <prvUnlockQueue>
				if( xTaskResumeAll() == pdFALSE )
 8000728:	f000 fb9a 	bl	8000e60 <xTaskResumeAll>
 800072c:	b150      	cbz	r0, 8000744 <xQueueGenericSend+0xe0>
{
 800072e:	f04f 0801 	mov.w	r8, #1
 8000732:	e7a2      	b.n	800067a <xQueueGenericSend+0x16>
	taskEXIT_CRITICAL();
 8000734:	f7ff fe46 	bl	80003c4 <vPortExitCritical>
				prvUnlockQueue( pxQueue );
 8000738:	4620      	mov	r0, r4
 800073a:	f7ff ff0d 	bl	8000558 <prvUnlockQueue>
				( void ) xTaskResumeAll();
 800073e:	f000 fb8f 	bl	8000e60 <xTaskResumeAll>
 8000742:	e7f4      	b.n	800072e <xQueueGenericSend+0xca>
					portYIELD_WITHIN_API();
 8000744:	f04f 5380 	mov.w	r3, #268435456	; 0x10000000
 8000748:	f8ca 3000 	str.w	r3, [sl]
 800074c:	f3bf 8f4f 	dsb	sy
 8000750:	f3bf 8f6f 	isb	sy
 8000754:	e7eb      	b.n	800072e <xQueueGenericSend+0xca>
			prvUnlockQueue( pxQueue );
 8000756:	4620      	mov	r0, r4
 8000758:	f7ff fefe 	bl	8000558 <prvUnlockQueue>
			( void ) xTaskResumeAll();
 800075c:	f000 fb80 	bl	8000e60 <xTaskResumeAll>
 8000760:	e7b1      	b.n	80006c6 <xQueueGenericSend+0x62>
 8000762:	bf00      	nop
 8000764:	e000ed04 	.word	0xe000ed04

08000768 <xQueueGenericSendFromISR>:
{
 8000768:	b5f8      	push	{r3, r4, r5, r6, r7, lr}
 800076a:	4617      	mov	r7, r2
 800076c:	4604      	mov	r4, r0
 800076e:	461a      	mov	r2, r3
	__asm volatile
 8000770:	f3ef 8611 	mrs	r6, BASEPRI
 8000774:	f04f 03bf 	mov.w	r3, #191	; 0xbf
 8000778:	f383 8811 	msr	BASEPRI, r3
 800077c:	f3bf 8f6f 	isb	sy
 8000780:	f3bf 8f4f 	dsb	sy
		if( ( pxQueue->uxMessagesWaiting < pxQueue->uxLength ) || ( xCopyPosition == queueOVERWRITE ) )
 8000784:	6b80      	ldr	r0, [r0, #56]	; 0x38
 8000786:	6be3      	ldr	r3, [r4, #60]	; 0x3c
 8000788:	4298      	cmp	r0, r3
 800078a:	d301      	bcc.n	8000790 <xQueueGenericSendFromISR+0x28>
 800078c:	2a02      	cmp	r2, #2
 800078e:	d11d      	bne.n	80007cc <xQueueGenericSendFromISR+0x64>
			const int8_t cTxLock = pxQueue->cTxLock;
 8000790:	f894 5045 	ldrb.w	r5, [r4, #69]	; 0x45
			( void ) prvCopyDataToQueue( pxQueue, pvItemToQueue, xCopyPosition );
 8000794:	4620      	mov	r0, r4
			const int8_t cTxLock = pxQueue->cTxLock;
 8000796:	b26d      	sxtb	r5, r5
			( void ) prvCopyDataToQueue( pxQueue, pvItemToQueue, xCopyPosition );
 8000798:	f7ff fe95 	bl	80004c6 <prvCopyDataToQueue>
			if( cTxLock == queueUNLOCKED )
 800079c:	1c6b      	adds	r3, r5, #1
 800079e:	d110      	bne.n	80007c2 <xQueueGenericSendFromISR+0x5a>
					if( listLIST_IS_EMPTY( &( pxQueue->xTasksWaitingToReceive ) ) == pdFALSE )
 80007a0:	6a63      	ldr	r3, [r4, #36]	; 0x24
 80007a2:	b90b      	cbnz	r3, 80007a8 <xQueueGenericSendFromISR+0x40>
			xReturn = pdPASS;
 80007a4:	2001      	movs	r0, #1
 80007a6:	e009      	b.n	80007bc <xQueueGenericSendFromISR+0x54>
						if( xTaskRemoveFromEventList( &( pxQueue->xTasksWaitingToReceive ) ) != pdFALSE )
 80007a8:	f104 0024 	add.w	r0, r4, #36	; 0x24
 80007ac:	f000 fc6a 	bl	8001084 <xTaskRemoveFromEventList>
 80007b0:	2800      	cmp	r0, #0
 80007b2:	d0f7      	beq.n	80007a4 <xQueueGenericSendFromISR+0x3c>
							if( pxHigherPriorityTaskWoken != NULL )
 80007b4:	2f00      	cmp	r7, #0
 80007b6:	d0f5      	beq.n	80007a4 <xQueueGenericSendFromISR+0x3c>
								*pxHigherPriorityTaskWoken = pdTRUE;
 80007b8:	2001      	movs	r0, #1
 80007ba:	6038      	str	r0, [r7, #0]
	__asm volatile
 80007bc:	f386 8811 	msr	BASEPRI, r6
}
 80007c0:	bdf8      	pop	{r3, r4, r5, r6, r7, pc}
				pxQueue->cTxLock = ( int8_t ) ( cTxLock + 1 );
 80007c2:	3501      	adds	r5, #1
 80007c4:	b26d      	sxtb	r5, r5
 80007c6:	f884 5045 	strb.w	r5, [r4, #69]	; 0x45
 80007ca:	e7eb      	b.n	80007a4 <xQueueGenericSendFromISR+0x3c>
			xReturn = errQUEUE_FULL;
 80007cc:	2000      	movs	r0, #0
 80007ce:	e7f5      	b.n	80007bc <xQueueGenericSendFromISR+0x54>

080007d0 <xQueueGiveFromISR>:
{
 80007d0:	b538      	push	{r3, r4, r5, lr}
 80007d2:	460c      	mov	r4, r1
	__asm volatile
 80007d4:	f3ef 8511 	mrs	r5, BASEPRI
 80007d8:	f04f 03bf 	mov.w	r3, #191	; 0xbf
 80007dc:	f383 8811 	msr	BASEPRI, r3
 80007e0:	f3bf 8f6f 	isb	sy
 80007e4:	f3bf 8f4f 	dsb	sy
		const UBaseType_t uxMessagesWaiting = pxQueue->uxMessagesWaiting;
 80007e8:	6b82      	ldr	r2, [r0, #56]	; 0x38
		if( uxMessagesWaiting < pxQueue->uxLength )
 80007ea:	6bc3      	ldr	r3, [r0, #60]	; 0x3c
 80007ec:	4293      	cmp	r3, r2
 80007ee:	d91b      	bls.n	8000828 <xQueueGiveFromISR+0x58>
			const int8_t cTxLock = pxQueue->cTxLock;
 80007f0:	f890 1045 	ldrb.w	r1, [r0, #69]	; 0x45
			pxQueue->uxMessagesWaiting = uxMessagesWaiting + ( UBaseType_t ) 1;
 80007f4:	3201      	adds	r2, #1
			if( cTxLock == queueUNLOCKED )
 80007f6:	29ff      	cmp	r1, #255	; 0xff
			const int8_t cTxLock = pxQueue->cTxLock;
 80007f8:	b24b      	sxtb	r3, r1
			pxQueue->uxMessagesWaiting = uxMessagesWaiting + ( UBaseType_t ) 1;
 80007fa:	6382      	str	r2, [r0, #56]	; 0x38
			if( cTxLock == queueUNLOCKED )
 80007fc:	d10f      	bne.n	800081e <xQueueGiveFromISR+0x4e>
					if( listLIST_IS_EMPTY( &( pxQueue->xTasksWaitingToReceive ) ) == pdFALSE )
 80007fe:	6a43      	ldr	r3, [r0, #36]	; 0x24
 8000800:	b90b      	cbnz	r3, 8000806 <xQueueGiveFromISR+0x36>
			xReturn = pdPASS;
 8000802:	2001      	movs	r0, #1
 8000804:	e008      	b.n	8000818 <xQueueGiveFromISR+0x48>
						if( xTaskRemoveFromEventList( &( pxQueue->xTasksWaitingToReceive ) ) != pdFALSE )
 8000806:	3024      	adds	r0, #36	; 0x24
 8000808:	f000 fc3c 	bl	8001084 <xTaskRemoveFromEventList>
 800080c:	2800      	cmp	r0, #0
 800080e:	d0f8      	beq.n	8000802 <xQueueGiveFromISR+0x32>
							if( pxHigherPriorityTaskWoken != NULL )
 8000810:	2c00      	cmp	r4, #0
 8000812:	d0f6      	beq.n	8000802 <xQueueGiveFromISR+0x32>
								*pxHigherPriorityTaskWoken = pdTRUE;
 8000814:	2001      	movs	r0, #1
 8000816:	6020      	str	r0, [r4, #0]
	__asm volatile
 8000818:	f385 8811 	msr	BASEPRI, r5
}
 800081c:	bd38      	pop	{r3, r4, r5, pc}
				pxQueue->cTxLock = ( int8_t ) ( cTxLock + 1 );
 800081e:	3301      	adds	r3, #1
 8000820:	b25b      	sxtb	r3, r3
 8000822:	f880 3045 	strb.w	r3, [r0, #69]	; 0x45
 8000826:	e7ec      	b.n	8000802 <xQueueGiveFromISR+0x32>
			xReturn = errQUEUE_FULL;
 8000828:	2000      	movs	r0, #0
 800082a:	e7f5      	b.n	8000818 <xQueueGiveFromISR+0x48>

0800082c <xQueueReceive>:
{
 800082c:	e92d 43f0 	stmdb	sp!, {r4, r5, r6, r7, r8, r9, lr}
BaseType_t xEntryTimeSet = pdFALSE;
 8000830:	2700      	movs	r7, #0
{
 8000832:	4604      	mov	r4, r0
 8000834:	460e      	mov	r6, r1
		prvLockQueue( pxQueue );
 8000836:	46b8      	mov	r8, r7
{
 8000838:	b085      	sub	sp, #20
					portYIELD_WITHIN_API();
 800083a:	f8df 90dc 	ldr.w	r9, [pc, #220]	; 8000918 <xQueueReceive+0xec>
{
 800083e:	9201      	str	r2, [sp, #4]
		taskENTER_CRITICAL();
 8000840:	f7ff fdb0 	bl	80003a4 <vPortEnterCritical>
			const UBaseType_t uxMessagesWaiting = pxQueue->uxMessagesWaiting;
 8000844:	6ba5      	ldr	r5, [r4, #56]	; 0x38
			if( uxMessagesWaiting > ( UBaseType_t ) 0 )
 8000846:	b1d5      	cbz	r5, 800087e <xQueueReceive+0x52>
				prvCopyDataFromQueue( pxQueue, pvBuffer );
 8000848:	4631      	mov	r1, r6
 800084a:	4620      	mov	r0, r4
				pxQueue->uxMessagesWaiting = uxMessagesWaiting - ( UBaseType_t ) 1;
 800084c:	3d01      	subs	r5, #1
				prvCopyDataFromQueue( pxQueue, pvBuffer );
 800084e:	f7ff fe6f 	bl	8000530 <prvCopyDataFromQueue>
				pxQueue->uxMessagesWaiting = uxMessagesWaiting - ( UBaseType_t ) 1;
 8000852:	63a5      	str	r5, [r4, #56]	; 0x38
				if( listLIST_IS_EMPTY( &( pxQueue->xTasksWaitingToSend ) ) == pdFALSE )
 8000854:	6923      	ldr	r3, [r4, #16]
 8000856:	b163      	cbz	r3, 8000872 <xQueueReceive+0x46>
					if( xTaskRemoveFromEventList( &( pxQueue->xTasksWaitingToSend ) ) != pdFALSE )
 8000858:	f104 0010 	add.w	r0, r4, #16
 800085c:	f000 fc12 	bl	8001084 <xTaskRemoveFromEventList>
 8000860:	b138      	cbz	r0, 8000872 <xQueueReceive+0x46>
						queueYIELD_IF_USING_PREEMPTION();
 8000862:	f04f 5280 	mov.w	r2, #268435456	; 0x10000000
 8000866:	4b2c      	ldr	r3, [pc, #176]	; (8000918 <xQueueReceive+0xec>)
 8000868:	601a      	str	r2, [r3, #0]
 800086a:	f3bf 8f4f 	dsb	sy
 800086e:	f3bf 8f6f 	isb	sy
				taskEXIT_CRITICAL();
 8000872:	f7ff fda7 	bl	80003c4 <vPortExitCritical>
				return pdPASS;
 8000876:	2001      	movs	r0, #1
}
 8000878:	b005      	add	sp, #20
 800087a:	e8bd 83f0 	ldmia.w	sp!, {r4, r5, r6, r7, r8, r9, pc}
				if( xTicksToWait == ( TickType_t ) 0 )
 800087e:	9d01      	ldr	r5, [sp, #4]
 8000880:	b91d      	cbnz	r5, 800088a <xQueueReceive+0x5e>
					taskEXIT_CRITICAL();
 8000882:	f7ff fd9f 	bl	80003c4 <vPortExitCritical>
				return errQUEUE_EMPTY;
 8000886:	2000      	movs	r0, #0
 8000888:	e7f6      	b.n	8000878 <xQueueReceive+0x4c>
				else if( xEntryTimeSet == pdFALSE )
 800088a:	b917      	cbnz	r7, 8000892 <xQueueReceive+0x66>
					vTaskInternalSetTimeOutState( &xTimeOut );
 800088c:	a802      	add	r0, sp, #8
 800088e:	f000 fc27 	bl	80010e0 <vTaskInternalSetTimeOutState>
		taskEXIT_CRITICAL();
 8000892:	f7ff fd97 	bl	80003c4 <vPortExitCritical>
		vTaskSuspendAll();
 8000896:	f000 fa6d 	bl	8000d74 <vTaskSuspendAll>
		prvLockQueue( pxQueue );
 800089a:	f7ff fd83 	bl	80003a4 <vPortEnterCritical>
 800089e:	f894 3044 	ldrb.w	r3, [r4, #68]	; 0x44
 80008a2:	2bff      	cmp	r3, #255	; 0xff
 80008a4:	bf08      	it	eq
 80008a6:	f884 8044 	strbeq.w	r8, [r4, #68]	; 0x44
 80008aa:	f894 3045 	ldrb.w	r3, [r4, #69]	; 0x45
 80008ae:	2bff      	cmp	r3, #255	; 0xff
 80008b0:	bf08      	it	eq
 80008b2:	f884 8045 	strbeq.w	r8, [r4, #69]	; 0x45
 80008b6:	f7ff fd85 	bl	80003c4 <vPortExitCritical>
		if( xTaskCheckForTimeOut( &xTimeOut, &xTicksToWait ) == pdFALSE )
 80008ba:	a901      	add	r1, sp, #4
 80008bc:	a802      	add	r0, sp, #8
 80008be:	f000 fc19 	bl	80010f4 <xTaskCheckForTimeOut>
 80008c2:	b9f0      	cbnz	r0, 8000902 <xQueueReceive+0xd6>
			if( prvIsQueueEmpty( pxQueue ) != pdFALSE )
 80008c4:	4620      	mov	r0, r4
 80008c6:	f7ff fdf3 	bl	80004b0 <prvIsQueueEmpty>
 80008ca:	b1a0      	cbz	r0, 80008f6 <xQueueReceive+0xca>
				vTaskPlaceOnEventList( &( pxQueue->xTasksWaitingToReceive ), xTicksToWait );
 80008cc:	9901      	ldr	r1, [sp, #4]
 80008ce:	f104 0024 	add.w	r0, r4, #36	; 0x24
 80008d2:	f000 fbc7 	bl	8001064 <vTaskPlaceOnEventList>
				prvUnlockQueue( pxQueue );
 80008d6:	4620      	mov	r0, r4
 80008d8:	f7ff fe3e 	bl	8000558 <prvUnlockQueue>
				if( xTaskResumeAll() == pdFALSE )
 80008dc:	f000 fac0 	bl	8000e60 <xTaskResumeAll>
 80008e0:	b938      	cbnz	r0, 80008f2 <xQueueReceive+0xc6>
					portYIELD_WITHIN_API();
 80008e2:	f04f 5380 	mov.w	r3, #268435456	; 0x10000000
 80008e6:	f8c9 3000 	str.w	r3, [r9]
 80008ea:	f3bf 8f4f 	dsb	sy
 80008ee:	f3bf 8f6f 	isb	sy
{
 80008f2:	2701      	movs	r7, #1
 80008f4:	e7a4      	b.n	8000840 <xQueueReceive+0x14>
				prvUnlockQueue( pxQueue );
 80008f6:	4620      	mov	r0, r4
 80008f8:	f7ff fe2e 	bl	8000558 <prvUnlockQueue>
				( void ) xTaskResumeAll();
 80008fc:	f000 fab0 	bl	8000e60 <xTaskResumeAll>
 8000900:	e7f7      	b.n	80008f2 <xQueueReceive+0xc6>
			prvUnlockQueue( pxQueue );
 8000902:	4620      	mov	r0, r4
 8000904:	f7ff fe28 	bl	8000558 <prvUnlockQueue>
			( void ) xTaskResumeAll();
 8000908:	f000 faaa 	bl	8000e60 <xTaskResumeAll>
			if( prvIsQueueEmpty( pxQueue ) != pdFALSE )
 800090c:	4620      	mov	r0, r4
 800090e:	f7ff fdcf 	bl	80004b0 <prvIsQueueEmpty>
 8000912:	2800      	cmp	r0, #0
 8000914:	d0ed      	beq.n	80008f2 <xQueueReceive+0xc6>
 8000916:	e7b6      	b.n	8000886 <xQueueReceive+0x5a>
 8000918:	e000ed04 	.word	0xe000ed04

0800091c <xQueueSemaphoreTake>:
{
 800091c:	e92d 43f0 	stmdb	sp!, {r4, r5, r6, r7, r8, r9, lr}
	BaseType_t xInheritanceOccurred = pdFALSE;
 8000920:	2500      	movs	r5, #0
{
 8000922:	4604      	mov	r4, r0
BaseType_t xEntryTimeSet = pdFALSE;
 8000924:	462f      	mov	r7, r5
		prvLockQueue( pxQueue );
 8000926:	462e      	mov	r6, r5
{
 8000928:	b085      	sub	sp, #20
					portYIELD_WITHIN_API();
 800092a:	f8df 9114 	ldr.w	r9, [pc, #276]	; 8000a40 <xQueueSemaphoreTake+0x124>
{
 800092e:	9101      	str	r1, [sp, #4]
		taskENTER_CRITICAL();
 8000930:	f7ff fd38 	bl	80003a4 <vPortEnterCritical>
			const UBaseType_t uxSemaphoreCount = pxQueue->uxMessagesWaiting;
 8000934:	6ba3      	ldr	r3, [r4, #56]	; 0x38
			if( uxSemaphoreCount > ( UBaseType_t ) 0 )
 8000936:	b1e3      	cbz	r3, 8000972 <xQueueSemaphoreTake+0x56>
				pxQueue->uxMessagesWaiting = uxSemaphoreCount - ( UBaseType_t ) 1;
 8000938:	3b01      	subs	r3, #1
 800093a:	63a3      	str	r3, [r4, #56]	; 0x38
					if( pxQueue->uxQueueType == queueQUEUE_IS_MUTEX )
 800093c:	6823      	ldr	r3, [r4, #0]
 800093e:	b913      	cbnz	r3, 8000946 <xQueueSemaphoreTake+0x2a>
						pxQueue->u.xSemaphore.xMutexHolder = pvTaskIncrementMutexHeldCount();
 8000940:	f000 fcd0 	bl	80012e4 <pvTaskIncrementMutexHeldCount>
 8000944:	60a0      	str	r0, [r4, #8]
				if( listLIST_IS_EMPTY( &( pxQueue->xTasksWaitingToSend ) ) == pdFALSE )
 8000946:	6923      	ldr	r3, [r4, #16]
 8000948:	b163      	cbz	r3, 8000964 <xQueueSemaphoreTake+0x48>
					if( xTaskRemoveFromEventList( &( pxQueue->xTasksWaitingToSend ) ) != pdFALSE )
 800094a:	f104 0010 	add.w	r0, r4, #16
 800094e:	f000 fb99 	bl	8001084 <xTaskRemoveFromEventList>
 8000952:	b138      	cbz	r0, 8000964 <xQueueSemaphoreTake+0x48>
						queueYIELD_IF_USING_PREEMPTION();
 8000954:	f04f 5280 	mov.w	r2, #268435456	; 0x10000000
 8000958:	4b39      	ldr	r3, [pc, #228]	; (8000a40 <xQueueSemaphoreTake+0x124>)
 800095a:	601a      	str	r2, [r3, #0]
 800095c:	f3bf 8f4f 	dsb	sy
 8000960:	f3bf 8f6f 	isb	sy
				taskEXIT_CRITICAL();
 8000964:	f7ff fd2e 	bl	80003c4 <vPortExitCritical>
				return pdPASS;
 8000968:	2501      	movs	r5, #1
}
 800096a:	4628      	mov	r0, r5
 800096c:	b005      	add	sp, #20
 800096e:	e8bd 83f0 	ldmia.w	sp!, {r4, r5, r6, r7, r8, r9, pc}
				if( xTicksToWait == ( TickType_t ) 0 )
 8000972:	f8dd 8004 	ldr.w	r8, [sp, #4]
 8000976:	f1b8 0f00 	cmp.w	r8, #0
 800097a:	d103      	bne.n	8000984 <xQueueSemaphoreTake+0x68>
						taskEXIT_CRITICAL();
 800097c:	f7ff fd22 	bl	80003c4 <vPortExitCritical>
				return errQUEUE_EMPTY;
 8000980:	2500      	movs	r5, #0
 8000982:	e7f2      	b.n	800096a <xQueueSemaphoreTake+0x4e>
				else if( xEntryTimeSet == pdFALSE )
 8000984:	b917      	cbnz	r7, 800098c <xQueueSemaphoreTake+0x70>
					vTaskInternalSetTimeOutState( &xTimeOut );
 8000986:	a802      	add	r0, sp, #8
 8000988:	f000 fbaa 	bl	80010e0 <vTaskInternalSetTimeOutState>
		taskEXIT_CRITICAL();
 800098c:	f7ff fd1a 	bl	80003c4 <vPortExitCritical>
		vTaskSuspendAll();
 8000990:	f000 f9f0 	bl	8000d74 <vTaskSuspendAll>
		prvLockQueue( pxQueue );
 8000994:	f7ff fd06 	bl	80003a4 <vPortEnterCritical>
 8000998:	f894 3044 	ldrb.w	r3, [r4, #68]	; 0x44
 800099c:	2bff      	cmp	r3, #255	; 0xff
 800099e:	bf08      	it	eq
 80009a0:	f884 6044 	strbeq.w	r6, [r4, #68]	; 0x44
 80009a4:	f894 3045 	ldrb.w	r3, [r4, #69]	; 0x45
 80009a8:	2bff      	cmp	r3, #255	; 0xff
 80009aa:	bf08      	it	eq
 80009ac:	f884 6045 	strbeq.w	r6, [r4, #69]	; 0x45
 80009b0:	f7ff fd08 	bl	80003c4 <vPortExitCritical>
		if( xTaskCheckForTimeOut( &xTimeOut, &xTicksToWait ) == pdFALSE )
 80009b4:	a901      	add	r1, sp, #4
 80009b6:	a802      	add	r0, sp, #8
 80009b8:	f000 fb9c 	bl	80010f4 <xTaskCheckForTimeOut>
 80009bc:	bb40      	cbnz	r0, 8000a10 <xQueueSemaphoreTake+0xf4>
			if( prvIsQueueEmpty( pxQueue ) != pdFALSE )
 80009be:	4620      	mov	r0, r4
 80009c0:	f7ff fd76 	bl	80004b0 <prvIsQueueEmpty>
 80009c4:	b1f0      	cbz	r0, 8000a04 <xQueueSemaphoreTake+0xe8>
					if( pxQueue->uxQueueType == queueQUEUE_IS_MUTEX )
 80009c6:	6823      	ldr	r3, [r4, #0]
 80009c8:	b93b      	cbnz	r3, 80009da <xQueueSemaphoreTake+0xbe>
						taskENTER_CRITICAL();
 80009ca:	f7ff fceb 	bl	80003a4 <vPortEnterCritical>
							xInheritanceOccurred = xTaskPriorityInherit( pxQueue->u.xSemaphore.xMutexHolder );
 80009ce:	68a0      	ldr	r0, [r4, #8]
 80009d0:	f000 fbbe 	bl	8001150 <xTaskPriorityInherit>
 80009d4:	4605      	mov	r5, r0
						taskEXIT_CRITICAL();
 80009d6:	f7ff fcf5 	bl	80003c4 <vPortExitCritical>
				vTaskPlaceOnEventList( &( pxQueue->xTasksWaitingToReceive ), xTicksToWait );
 80009da:	9901      	ldr	r1, [sp, #4]
 80009dc:	f104 0024 	add.w	r0, r4, #36	; 0x24
 80009e0:	f000 fb40 	bl	8001064 <vTaskPlaceOnEventList>
				prvUnlockQueue( pxQueue );
 80009e4:	4620      	mov	r0, r4
 80009e6:	f7ff fdb7 	bl	8000558 <prvUnlockQueue>
				if( xTaskResumeAll() == pdFALSE )
 80009ea:	f000 fa39 	bl	8000e60 <xTaskResumeAll>
 80009ee:	b938      	cbnz	r0, 8000a00 <xQueueSemaphoreTake+0xe4>
					portYIELD_WITHIN_API();
 80009f0:	f04f 5380 	mov.w	r3, #268435456	; 0x10000000
 80009f4:	f8c9 3000 	str.w	r3, [r9]
 80009f8:	f3bf 8f4f 	dsb	sy
 80009fc:	f3bf 8f6f 	isb	sy
{
 8000a00:	2701      	movs	r7, #1
 8000a02:	e795      	b.n	8000930 <xQueueSemaphoreTake+0x14>
				prvUnlockQueue( pxQueue );
 8000a04:	4620      	mov	r0, r4
 8000a06:	f7ff fda7 	bl	8000558 <prvUnlockQueue>
				( void ) xTaskResumeAll();
 8000a0a:	f000 fa29 	bl	8000e60 <xTaskResumeAll>
 8000a0e:	e7f7      	b.n	8000a00 <xQueueSemaphoreTake+0xe4>
			prvUnlockQueue( pxQueue );
 8000a10:	4620      	mov	r0, r4
 8000a12:	f7ff fda1 	bl	8000558 <prvUnlockQueue>
			( void ) xTaskResumeAll();
 8000a16:	f000 fa23 	bl	8000e60 <xTaskResumeAll>
			if( prvIsQueueEmpty( pxQueue ) != pdFALSE )
 8000a1a:	4620      	mov	r0, r4
 8000a1c:	f7ff fd48 	bl	80004b0 <prvIsQueueEmpty>
 8000a20:	2800      	cmp	r0, #0
 8000a22:	d0ed      	beq.n	8000a00 <xQueueSemaphoreTake+0xe4>
					if( xInheritanceOccurred != pdFALSE )
 8000a24:	2d00      	cmp	r5, #0
 8000a26:	d0a0      	beq.n	800096a <xQueueSemaphoreTake+0x4e>
						taskENTER_CRITICAL();
 8000a28:	f7ff fcbc 	bl	80003a4 <vPortEnterCritical>
		if( listCURRENT_LIST_LENGTH( &( pxQueue->xTasksWaitingToReceive ) ) > 0U )
 8000a2c:	6a61      	ldr	r1, [r4, #36]	; 0x24
 8000a2e:	b119      	cbz	r1, 8000a38 <xQueueSemaphoreTake+0x11c>
			uxHighestPriorityOfWaitingTasks = ( UBaseType_t ) configMAX_PRIORITIES - ( UBaseType_t ) listGET_ITEM_VALUE_OF_HEAD_ENTRY( &( pxQueue->xTasksWaitingToReceive ) );
 8000a30:	6b23      	ldr	r3, [r4, #48]	; 0x30
 8000a32:	6819      	ldr	r1, [r3, #0]
 8000a34:	f1c1 0105 	rsb	r1, r1, #5
							vTaskPriorityDisinheritAfterTimeout( pxQueue->u.xSemaphore.xMutexHolder, uxHighestWaitingPriority );
 8000a38:	68a0      	ldr	r0, [r4, #8]
 8000a3a:	f000 fc11 	bl	8001260 <vTaskPriorityDisinheritAfterTimeout>
 8000a3e:	e79d      	b.n	800097c <xQueueSemaphoreTake+0x60>
 8000a40:	e000ed04 	.word	0xe000ed04

08000a44 <prvResetNextTaskUnblockTime>:

static void prvResetNextTaskUnblockTime( void )
{
TCB_t *pxTCB;

	if( listLIST_IS_EMPTY( pxDelayedTaskList ) != pdFALSE )
 8000a44:	4b06      	ldr	r3, [pc, #24]	; (8000a60 <prvResetNextTaskUnblockTime+0x1c>)
 8000a46:	681a      	ldr	r2, [r3, #0]
 8000a48:	6812      	ldr	r2, [r2, #0]
 8000a4a:	b91a      	cbnz	r2, 8000a54 <prvResetNextTaskUnblockTime+0x10>
	{
		/* The new current delayed list is empty.  Set xNextTaskUnblockTime to
		the maximum possible value so it is	extremely unlikely that the
		if( xTickCount >= xNextTaskUnblockTime ) test will pass until
		there is an item in the delayed list. */
		xNextTaskUnblockTime = portMAX_DELAY;
 8000a4c:	f04f 32ff 	mov.w	r2, #4294967295
		/* The new current delayed list is not empty, get the value of
		the item at the head of the delayed list.  This is the time at
		which the task at the head of the delayed list should be removed
		from the Blocked state. */
		( pxTCB ) = listGET_OWNER_OF_HEAD_ENTRY( pxDelayedTaskList ); /*lint !e9079 void * is used as this macro is used with timers and co-routines too.  Alignment is known to be fine as the type of the pointer stored and retrieved is the same. */
		xNextTaskUnblockTime = listGET_LIST_ITEM_VALUE( &( ( pxTCB )->xStateListItem ) );
 8000a50:	605a      	str	r2, [r3, #4]
	}
}
 8000a52:	4770      	bx	lr
		( pxTCB ) = listGET_OWNER_OF_HEAD_ENTRY( pxDelayedTaskList ); /*lint !e9079 void * is used as this macro is used with timers and co-routines too.  Alignment is known to be fine as the type of the pointer stored and retrieved is the same. */
 8000a54:	681a      	ldr	r2, [r3, #0]
 8000a56:	68d2      	ldr	r2, [r2, #12]
		xNextTaskUnblockTime = listGET_LIST_ITEM_VALUE( &( ( pxTCB )->xStateListItem ) );
 8000a58:	68d2      	ldr	r2, [r2, #12]
 8000a5a:	6852      	ldr	r2, [r2, #4]
 8000a5c:	e7f8      	b.n	8000a50 <prvResetNextTaskUnblockTime+0xc>
 8000a5e:	bf00      	nop
 8000a60:	200044c4 	.word	0x200044c4

08000a64 <prvAddCurrentTaskToDelayedList>:
#endif /* configUSE_TASK_NOTIFICATIONS */
/*-----------------------------------------------------------*/


static void prvAddCurrentTaskToDelayedList( TickType_t xTicksToWait, const BaseType_t xCanBlockIndefinitely )
{
 8000a64:	b5f8      	push	{r3, r4, r5, r6, r7, lr}
TickType_t xTimeToWake;
const TickType_t xConstTickCount = xTickCount;
 8000a66:	4c18      	ldr	r4, [pc, #96]	; (8000ac8 <prvAddCurrentTaskToDelayedList+0x64>)
{
 8000a68:	4606      	mov	r6, r0
const TickType_t xConstTickCount = xTickCount;
 8000a6a:	68a5      	ldr	r5, [r4, #8]
	}
	#endif

	/* Remove the task from the ready list before adding it to the blocked list
	as the same list item is used for both lists. */
	if( uxListRemove( &( pxCurrentTCB->xStateListItem ) ) == ( UBaseType_t ) 0 )
 8000a6c:	68e0      	ldr	r0, [r4, #12]
{
 8000a6e:	460f      	mov	r7, r1
	if( uxListRemove( &( pxCurrentTCB->xStateListItem ) ) == ( UBaseType_t ) 0 )
 8000a70:	3004      	adds	r0, #4
 8000a72:	f7ff fc42 	bl	80002fa <uxListRemove>
 8000a76:	b938      	cbnz	r0, 8000a88 <prvAddCurrentTaskToDelayedList+0x24>
	{
		/* The current task must be in a ready list, so there is no need to
		check, and the port reset macro can be called directly. */
		portRESET_READY_PRIORITY( pxCurrentTCB->uxPriority, uxTopReadyPriority ); /*lint !e931 pxCurrentTCB cannot change as it is the calling task.  pxCurrentTCB->uxPriority and uxTopReadyPriority cannot change as called with scheduler suspended or in a critical section. */
 8000a78:	68e2      	ldr	r2, [r4, #12]
 8000a7a:	6923      	ldr	r3, [r4, #16]
 8000a7c:	6ad1      	ldr	r1, [r2, #44]	; 0x2c
 8000a7e:	2201      	movs	r2, #1
 8000a80:	408a      	lsls	r2, r1
 8000a82:	ea23 0302 	bic.w	r3, r3, r2
 8000a86:	6123      	str	r3, [r4, #16]
		mtCOVERAGE_TEST_MARKER();
	}

	#if ( INCLUDE_vTaskSuspend == 1 )
	{
		if( ( xTicksToWait == portMAX_DELAY ) && ( xCanBlockIndefinitely != pdFALSE ) )
 8000a88:	1c73      	adds	r3, r6, #1
 8000a8a:	d107      	bne.n	8000a9c <prvAddCurrentTaskToDelayedList+0x38>
 8000a8c:	b137      	cbz	r7, 8000a9c <prvAddCurrentTaskToDelayedList+0x38>
		{
			/* Add the task to the suspended task list instead of a delayed task
			list to ensure it is not woken by a timing event.  It will block
			indefinitely. */
			vListInsertEnd( &xSuspendedTaskList, &( pxCurrentTCB->xStateListItem ) );
 8000a8e:	68e1      	ldr	r1, [r4, #12]
 8000a90:	480e      	ldr	r0, [pc, #56]	; (8000acc <prvAddCurrentTaskToDelayedList+0x68>)
 8000a92:	3104      	adds	r1, #4

		/* Avoid compiler warning when INCLUDE_vTaskSuspend is not 1. */
		( void ) xCanBlockIndefinitely;
	}
	#endif /* INCLUDE_vTaskSuspend */
}
 8000a94:	e8bd 40f8 	ldmia.w	sp!, {r3, r4, r5, r6, r7, lr}
			vListInsertEnd( &xSuspendedTaskList, &( pxCurrentTCB->xStateListItem ) );
 8000a98:	f7ff bc0c 	b.w	80002b4 <vListInsertEnd>
			listSET_LIST_ITEM_VALUE( &( pxCurrentTCB->xStateListItem ), xTimeToWake );
 8000a9c:	68e3      	ldr	r3, [r4, #12]
 8000a9e:	19ad      	adds	r5, r5, r6
 8000aa0:	605d      	str	r5, [r3, #4]
			if( xTimeToWake < xConstTickCount )
 8000aa2:	d306      	bcc.n	8000ab2 <prvAddCurrentTaskToDelayedList+0x4e>
				vListInsert( pxOverflowDelayedTaskList, &( pxCurrentTCB->xStateListItem ) );
 8000aa4:	6aa0      	ldr	r0, [r4, #40]	; 0x28
 8000aa6:	68e1      	ldr	r1, [r4, #12]
}
 8000aa8:	e8bd 40f8 	ldmia.w	sp!, {r3, r4, r5, r6, r7, lr}
				vListInsert( pxOverflowDelayedTaskList, &( pxCurrentTCB->xStateListItem ) );
 8000aac:	3104      	adds	r1, #4
 8000aae:	f7ff bc0d 	b.w	80002cc <vListInsert>
				vListInsert( pxDelayedTaskList, &( pxCurrentTCB->xStateListItem ) );
 8000ab2:	6820      	ldr	r0, [r4, #0]
 8000ab4:	68e1      	ldr	r1, [r4, #12]
 8000ab6:	3104      	adds	r1, #4
 8000ab8:	f7ff fc08 	bl	80002cc <vListInsert>
				if( xTimeToWake < xNextTaskUnblockTime )
 8000abc:	6863      	ldr	r3, [r4, #4]
 8000abe:	42ab      	cmp	r3, r5
					xNextTaskUnblockTime = xTimeToWake;
 8000ac0:	bf88      	it	hi
 8000ac2:	6065      	strhi	r5, [r4, #4]
}
 8000ac4:	bdf8      	pop	{r3, r4, r5, r6, r7, pc}
 8000ac6:	bf00      	nop
 8000ac8:	200044c4 	.word	0x200044c4
 8000acc:	200044d8 	.word	0x200044d8

08000ad0 <prvIdleTask>:
{
 8000ad0:	b580      	push	{r7, lr}
				taskYIELD();
 8000ad2:	f04f 5780 	mov.w	r7, #268435456	; 0x10000000
		while( uxDeletedTasksWaitingCleanUp > ( UBaseType_t ) 0U )
 8000ad6:	4c11      	ldr	r4, [pc, #68]	; (8000b1c <prvIdleTask+0x4c>)
				taskYIELD();
 8000ad8:	4e11      	ldr	r6, [pc, #68]	; (8000b20 <prvIdleTask+0x50>)
		while( uxDeletedTasksWaitingCleanUp > ( UBaseType_t ) 0U )
 8000ada:	6c63      	ldr	r3, [r4, #68]	; 0x44
 8000adc:	b943      	cbnz	r3, 8000af0 <prvIdleTask+0x20>
			if( listCURRENT_LIST_LENGTH( &( pxReadyTasksLists[ tskIDLE_PRIORITY ] ) ) > ( UBaseType_t ) 1 )
 8000ade:	6ca3      	ldr	r3, [r4, #72]	; 0x48
 8000ae0:	2b01      	cmp	r3, #1
 8000ae2:	d9fa      	bls.n	8000ada <prvIdleTask+0xa>
				taskYIELD();
 8000ae4:	6037      	str	r7, [r6, #0]
 8000ae6:	f3bf 8f4f 	dsb	sy
 8000aea:	f3bf 8f6f 	isb	sy
 8000aee:	e7f4      	b.n	8000ada <prvIdleTask+0xa>
			taskENTER_CRITICAL();
 8000af0:	f7ff fc58 	bl	80003a4 <vPortEnterCritical>
				pxTCB = listGET_OWNER_OF_HEAD_ENTRY( ( &xTasksWaitingTermination ) ); /*lint !e9079 void * is used as this macro is used with timers and co-routines too.  Alignment is known to be fine as the type of the pointer stored and retrieved is the same. */
 8000af4:	6ba3      	ldr	r3, [r4, #56]	; 0x38
 8000af6:	68dd      	ldr	r5, [r3, #12]
				( void ) uxListRemove( &( pxTCB->xStateListItem ) );
 8000af8:	1d28      	adds	r0, r5, #4
 8000afa:	f7ff fbfe 	bl	80002fa <uxListRemove>
				--uxCurrentNumberOfTasks;
 8000afe:	6c23      	ldr	r3, [r4, #64]	; 0x40
 8000b00:	3b01      	subs	r3, #1
 8000b02:	6423      	str	r3, [r4, #64]	; 0x40
				--uxDeletedTasksWaitingCleanUp;
 8000b04:	6c63      	ldr	r3, [r4, #68]	; 0x44
 8000b06:	3b01      	subs	r3, #1
 8000b08:	6463      	str	r3, [r4, #68]	; 0x44
			taskEXIT_CRITICAL();
 8000b0a:	f7ff fc5b 	bl	80003c4 <vPortExitCritical>
			vPortFree( pxTCB->pxStack );
 8000b0e:	6b28      	ldr	r0, [r5, #48]	; 0x30
 8000b10:	f7ff fba2 	bl	8000258 <vPortFree>
			vPortFree( pxTCB );
 8000b14:	4628      	mov	r0, r5
 8000b16:	f7ff fb9f 	bl	8000258 <vPortFree>
	}
 8000b1a:	e7de      	b.n	8000ada <prvIdleTask+0xa>
 8000b1c:	200044c4 	.word	0x200044c4
 8000b20:	e000ed04 	.word	0xe000ed04

08000b24 <xTaskCreate>:
	{
 8000b24:	e92d 4ff8 	stmdb	sp!, {r3, r4, r5, r6, r7, r8, r9, sl, fp, lr}
			pxStack = pvPortMalloc( ( ( ( size_t ) usStackDepth ) * sizeof( StackType_t ) ) ); /*lint !e9079 All values returned by pvPortMalloc() have at least the alignment required by the MCU's stack and this allocation is the stack. */
 8000b28:	0096      	lsls	r6, r2, #2
	{
 8000b2a:	4607      	mov	r7, r0
			pxStack = pvPortMalloc( ( ( ( size_t ) usStackDepth ) * sizeof( StackType_t ) ) ); /*lint !e9079 All values returned by pvPortMalloc() have at least the alignment required by the MCU's stack and this allocation is the stack. */
 8000b2c:	4630      	mov	r0, r6
	{
 8000b2e:	460c      	mov	r4, r1
 8000b30:	4698      	mov	r8, r3
			pxStack = pvPortMalloc( ( ( ( size_t ) usStackDepth ) * sizeof( StackType_t ) ) ); /*lint !e9079 All values returned by pvPortMalloc() have at least the alignment required by the MCU's stack and this allocation is the stack. */
 8000b32:	f7ff fb3b 	bl	80001ac <pvPortMalloc>
			if( pxStack != NULL )
 8000b36:	4683      	mov	fp, r0
 8000b38:	2800      	cmp	r0, #0
 8000b3a:	f000 80a3 	beq.w	8000c84 <xTaskCreate+0x160>
				pxNewTCB = ( TCB_t * ) pvPortMalloc( sizeof( TCB_t ) ); /*lint !e9087 !e9079 All values returned by pvPortMalloc() have at least the alignment required by the MCU's stack, and the first member of TCB_t is always a pointer to the task's stack. */
 8000b3e:	2054      	movs	r0, #84	; 0x54
 8000b40:	f7ff fb34 	bl	80001ac <pvPortMalloc>
				if( pxNewTCB != NULL )
 8000b44:	4605      	mov	r5, r0
 8000b46:	2800      	cmp	r0, #0
 8000b48:	f000 8099 	beq.w	8000c7e <xTaskCreate+0x15a>
					pxNewTCB->pxStack = pxStack;
 8000b4c:	1e63      	subs	r3, r4, #1
 8000b4e:	f8c0 b030 	str.w	fp, [r0, #48]	; 0x30
	for( x = ( UBaseType_t ) 0; x < ( UBaseType_t ) configMAX_TASK_NAME_LEN; x++ )
 8000b52:	f100 0234 	add.w	r2, r0, #52	; 0x34
 8000b56:	340f      	adds	r4, #15
		pxNewTCB->pcTaskName[ x ] = pcName[ x ];
 8000b58:	f813 1f01 	ldrb.w	r1, [r3, #1]!
 8000b5c:	f802 1b01 	strb.w	r1, [r2], #1
		if( pcName[ x ] == ( char ) 0x00 )
 8000b60:	7819      	ldrb	r1, [r3, #0]
 8000b62:	b109      	cbz	r1, 8000b68 <xTaskCreate+0x44>
	for( x = ( UBaseType_t ) 0; x < ( UBaseType_t ) configMAX_TASK_NAME_LEN; x++ )
 8000b64:	42a3      	cmp	r3, r4
 8000b66:	d1f7      	bne.n	8000b58 <xTaskCreate+0x34>
	pxNewTCB->pcTaskName[ configMAX_TASK_NAME_LEN - 1 ] = '\0';
 8000b68:	9c0a      	ldr	r4, [sp, #40]	; 0x28
 8000b6a:	f04f 0a00 	mov.w	sl, #0
 8000b6e:	2c04      	cmp	r4, #4
 8000b70:	bf28      	it	cs
 8000b72:	2404      	movcs	r4, #4
	vListInitialiseItem( &( pxNewTCB->xStateListItem ) );
 8000b74:	f105 0904 	add.w	r9, r5, #4
 8000b78:	4648      	mov	r0, r9
		pxNewTCB->uxMutexesHeld = 0;
 8000b7a:	e9c5 4a11 	strd	r4, sl, [r5, #68]	; 0x44
	pxNewTCB->uxPriority = uxPriority;
 8000b7e:	62ec      	str	r4, [r5, #44]	; 0x2c
	pxNewTCB->pcTaskName[ configMAX_TASK_NAME_LEN - 1 ] = '\0';
 8000b80:	f885 a043 	strb.w	sl, [r5, #67]	; 0x43
	vListInitialiseItem( &( pxNewTCB->xStateListItem ) );
 8000b84:	f7ff fb93 	bl	80002ae <vListInitialiseItem>
	vListInitialiseItem( &( pxNewTCB->xEventListItem ) );
 8000b88:	f105 0018 	add.w	r0, r5, #24
 8000b8c:	f7ff fb8f 	bl	80002ae <vListInitialiseItem>
		pxTopOfStack = &( pxNewTCB->pxStack[ ulStackDepth - ( uint32_t ) 1 ] );
 8000b90:	1f30      	subs	r0, r6, #4
	listSET_LIST_ITEM_VALUE( &( pxNewTCB->xEventListItem ), ( TickType_t ) configMAX_PRIORITIES - ( TickType_t ) uxPriority ); /*lint !e961 MISRA exception as the casts are only redundant for some ports. */
 8000b92:	f1c4 0405 	rsb	r4, r4, #5
		pxTopOfStack = &( pxNewTCB->pxStack[ ulStackDepth - ( uint32_t ) 1 ] );
 8000b96:	4458      	add	r0, fp
		pxNewTCB->ulNotifiedValue = 0;
 8000b98:	f8c5 a04c 	str.w	sl, [r5, #76]	; 0x4c
		pxNewTCB->pxTopOfStack = pxPortInitialiseStack( pxTopOfStack, pxTaskCode, pvParameters );
 8000b9c:	4642      	mov	r2, r8
 8000b9e:	4639      	mov	r1, r7
	listSET_LIST_ITEM_OWNER( &( pxNewTCB->xStateListItem ), pxNewTCB );
 8000ba0:	612d      	str	r5, [r5, #16]
	listSET_LIST_ITEM_VALUE( &( pxNewTCB->xEventListItem ), ( TickType_t ) configMAX_PRIORITIES - ( TickType_t ) uxPriority ); /*lint !e961 MISRA exception as the casts are only redundant for some ports. */
 8000ba2:	61ac      	str	r4, [r5, #24]
	listSET_LIST_ITEM_OWNER( &( pxNewTCB->xEventListItem ), pxNewTCB );
 8000ba4:	626d      	str	r5, [r5, #36]	; 0x24
		pxNewTCB->ucNotifyState = taskNOT_WAITING_NOTIFICATION;
 8000ba6:	f885 a050 	strb.w	sl, [r5, #80]	; 0x50
		pxNewTCB->pxTopOfStack = pxPortInitialiseStack( pxTopOfStack, pxTaskCode, pvParameters );
 8000baa:	f020 0007 	bic.w	r0, r0, #7
 8000bae:	f7ff fbd5 	bl	800035c <pxPortInitialiseStack>
	if( pxCreatedTask != NULL )
 8000bb2:	9b0b      	ldr	r3, [sp, #44]	; 0x2c
		pxNewTCB->pxTopOfStack = pxPortInitialiseStack( pxTopOfStack, pxTaskCode, pvParameters );
 8000bb4:	6028      	str	r0, [r5, #0]
	if( pxCreatedTask != NULL )
 8000bb6:	b103      	cbz	r3, 8000bba <xTaskCreate+0x96>
		*pxCreatedTask = ( TaskHandle_t ) pxNewTCB;
 8000bb8:	601d      	str	r5, [r3, #0]
		uxCurrentNumberOfTasks++;
 8000bba:	4c39      	ldr	r4, [pc, #228]	; (8000ca0 <xTaskCreate+0x17c>)
	taskENTER_CRITICAL();
 8000bbc:	f7ff fbf2 	bl	80003a4 <vPortEnterCritical>
		uxCurrentNumberOfTasks++;
 8000bc0:	6c23      	ldr	r3, [r4, #64]	; 0x40
 8000bc2:	f104 0748 	add.w	r7, r4, #72	; 0x48
 8000bc6:	3301      	adds	r3, #1
 8000bc8:	6423      	str	r3, [r4, #64]	; 0x40
		if( pxCurrentTCB == NULL )
 8000bca:	68e3      	ldr	r3, [r4, #12]
 8000bcc:	2b00      	cmp	r3, #0
 8000bce:	d15c      	bne.n	8000c8a <xTaskCreate+0x166>
			pxCurrentTCB = pxNewTCB;
 8000bd0:	60e5      	str	r5, [r4, #12]
			if( uxCurrentNumberOfTasks == ( UBaseType_t ) 1 )
 8000bd2:	6c23      	ldr	r3, [r4, #64]	; 0x40
 8000bd4:	2b01      	cmp	r3, #1
 8000bd6:	d12b      	bne.n	8000c30 <xTaskCreate+0x10c>
		vListInitialise( &( pxReadyTasksLists[ uxPriority ] ) );
 8000bd8:	4638      	mov	r0, r7
 8000bda:	f7ff fb5d 	bl	8000298 <vListInitialise>
 8000bde:	f104 005c 	add.w	r0, r4, #92	; 0x5c
 8000be2:	f7ff fb59 	bl	8000298 <vListInitialise>
 8000be6:	f104 0070 	add.w	r0, r4, #112	; 0x70
 8000bea:	f7ff fb55 	bl	8000298 <vListInitialise>
 8000bee:	f104 0084 	add.w	r0, r4, #132	; 0x84
 8000bf2:	f7ff fb51 	bl	8000298 <vListInitialise>
	vListInitialise( &xDelayedTaskList1 );
 8000bf6:	f104 08ac 	add.w	r8, r4, #172	; 0xac
		vListInitialise( &( pxReadyTasksLists[ uxPriority ] ) );
 8000bfa:	f104 0098 	add.w	r0, r4, #152	; 0x98
 8000bfe:	f7ff fb4b 	bl	8000298 <vListInitialise>
	vListInitialise( &xDelayedTaskList2 );
 8000c02:	f104 06c0 	add.w	r6, r4, #192	; 0xc0
	vListInitialise( &xDelayedTaskList1 );
 8000c06:	4640      	mov	r0, r8
 8000c08:	f7ff fb46 	bl	8000298 <vListInitialise>
	vListInitialise( &xDelayedTaskList2 );
 8000c0c:	4630      	mov	r0, r6
 8000c0e:	f7ff fb43 	bl	8000298 <vListInitialise>
	vListInitialise( &xPendingReadyList );
 8000c12:	f104 00d4 	add.w	r0, r4, #212	; 0xd4
 8000c16:	f7ff fb3f 	bl	8000298 <vListInitialise>
		vListInitialise( &xTasksWaitingTermination );
 8000c1a:	f104 002c 	add.w	r0, r4, #44	; 0x2c
 8000c1e:	f7ff fb3b 	bl	8000298 <vListInitialise>
		vListInitialise( &xSuspendedTaskList );
 8000c22:	f104 0014 	add.w	r0, r4, #20
 8000c26:	f7ff fb37 	bl	8000298 <vListInitialise>
	pxDelayedTaskList = &xDelayedTaskList1;
 8000c2a:	f8c4 8000 	str.w	r8, [r4]
	pxOverflowDelayedTaskList = &xDelayedTaskList2;
 8000c2e:	62a6      	str	r6, [r4, #40]	; 0x28
		prvAddTaskToReadyList( pxNewTCB );
 8000c30:	2601      	movs	r6, #1
 8000c32:	2014      	movs	r0, #20
		uxTaskNumber++;
 8000c34:	f8d4 30ec 	ldr.w	r3, [r4, #236]	; 0xec
		prvAddTaskToReadyList( pxNewTCB );
 8000c38:	6aea      	ldr	r2, [r5, #44]	; 0x2c
 8000c3a:	6921      	ldr	r1, [r4, #16]
		uxTaskNumber++;
 8000c3c:	3301      	adds	r3, #1
 8000c3e:	f8c4 30ec 	str.w	r3, [r4, #236]	; 0xec
		prvAddTaskToReadyList( pxNewTCB );
 8000c42:	fa06 f302 	lsl.w	r3, r6, r2
 8000c46:	430b      	orrs	r3, r1
 8000c48:	fb00 7002 	mla	r0, r0, r2, r7
 8000c4c:	4649      	mov	r1, r9
 8000c4e:	6123      	str	r3, [r4, #16]
 8000c50:	f7ff fb30 	bl	80002b4 <vListInsertEnd>
	taskEXIT_CRITICAL();
 8000c54:	f7ff fbb6 	bl	80003c4 <vPortExitCritical>
	if( xSchedulerRunning != pdFALSE )
 8000c58:	f8d4 30e8 	ldr.w	r3, [r4, #232]	; 0xe8
 8000c5c:	b163      	cbz	r3, 8000c78 <xTaskCreate+0x154>
		if( pxCurrentTCB->uxPriority < pxNewTCB->uxPriority )
 8000c5e:	68e3      	ldr	r3, [r4, #12]
 8000c60:	6ada      	ldr	r2, [r3, #44]	; 0x2c
 8000c62:	6aeb      	ldr	r3, [r5, #44]	; 0x2c
 8000c64:	429a      	cmp	r2, r3
 8000c66:	d207      	bcs.n	8000c78 <xTaskCreate+0x154>
			taskYIELD_IF_USING_PREEMPTION();
 8000c68:	f04f 5280 	mov.w	r2, #268435456	; 0x10000000
 8000c6c:	4b0d      	ldr	r3, [pc, #52]	; (8000ca4 <xTaskCreate+0x180>)
 8000c6e:	601a      	str	r2, [r3, #0]
 8000c70:	f3bf 8f4f 	dsb	sy
 8000c74:	f3bf 8f6f 	isb	sy
	}
 8000c78:	4630      	mov	r0, r6
 8000c7a:	e8bd 8ff8 	ldmia.w	sp!, {r3, r4, r5, r6, r7, r8, r9, sl, fp, pc}
					vPortFree( pxStack );
 8000c7e:	4658      	mov	r0, fp
 8000c80:	f7ff faea 	bl	8000258 <vPortFree>
			xReturn = errCOULD_NOT_ALLOCATE_REQUIRED_MEMORY;
 8000c84:	f04f 36ff 	mov.w	r6, #4294967295
 8000c88:	e7f6      	b.n	8000c78 <xTaskCreate+0x154>
			if( xSchedulerRunning == pdFALSE )
 8000c8a:	f8d4 30e8 	ldr.w	r3, [r4, #232]	; 0xe8
 8000c8e:	2b00      	cmp	r3, #0
 8000c90:	d1ce      	bne.n	8000c30 <xTaskCreate+0x10c>
				if( pxCurrentTCB->uxPriority <= pxNewTCB->uxPriority )
 8000c92:	68e3      	ldr	r3, [r4, #12]
 8000c94:	6aea      	ldr	r2, [r5, #44]	; 0x2c
 8000c96:	6adb      	ldr	r3, [r3, #44]	; 0x2c
 8000c98:	429a      	cmp	r2, r3
					pxCurrentTCB = pxNewTCB;
 8000c9a:	bf28      	it	cs
 8000c9c:	60e5      	strcs	r5, [r4, #12]
 8000c9e:	e7c7      	b.n	8000c30 <xTaskCreate+0x10c>
 8000ca0:	200044c4 	.word	0x200044c4
 8000ca4:	e000ed04 	.word	0xe000ed04

08000ca8 <vTaskResume>:
	{
 8000ca8:	b570      	push	{r4, r5, r6, lr}
		if( ( pxTCB != pxCurrentTCB ) && ( pxTCB != NULL ) )
 8000caa:	4d1b      	ldr	r5, [pc, #108]	; (8000d18 <vTaskResume+0x70>)
	{
 8000cac:	4604      	mov	r4, r0
		if( ( pxTCB != pxCurrentTCB ) && ( pxTCB != NULL ) )
 8000cae:	68eb      	ldr	r3, [r5, #12]
 8000cb0:	4283      	cmp	r3, r0
 8000cb2:	d030      	beq.n	8000d16 <vTaskResume+0x6e>
 8000cb4:	b378      	cbz	r0, 8000d16 <vTaskResume+0x6e>
			taskENTER_CRITICAL();
 8000cb6:	f7ff fb75 	bl	80003a4 <vPortEnterCritical>
		if( listIS_CONTAINED_WITHIN( &xSuspendedTaskList, &( pxTCB->xStateListItem ) ) != pdFALSE )
 8000cba:	6962      	ldr	r2, [r4, #20]
 8000cbc:	f105 0314 	add.w	r3, r5, #20
 8000cc0:	429a      	cmp	r2, r3
 8000cc2:	d124      	bne.n	8000d0e <vTaskResume+0x66>
			if( listIS_CONTAINED_WITHIN( &xPendingReadyList, &( pxTCB->xEventListItem ) ) == pdFALSE )
 8000cc4:	6aa3      	ldr	r3, [r4, #40]	; 0x28
 8000cc6:	f105 02d4 	add.w	r2, r5, #212	; 0xd4
 8000cca:	4293      	cmp	r3, r2
 8000ccc:	d01f      	beq.n	8000d0e <vTaskResume+0x66>
				if( listIS_CONTAINED_WITHIN( NULL, &( pxTCB->xEventListItem ) ) != pdFALSE ) /*lint !e961.  The cast is only redundant when NULL is used. */
 8000cce:	b9f3      	cbnz	r3, 8000d0e <vTaskResume+0x66>
					( void ) uxListRemove(  &( pxTCB->xStateListItem ) );
 8000cd0:	1d26      	adds	r6, r4, #4
 8000cd2:	4630      	mov	r0, r6
 8000cd4:	f7ff fb11 	bl	80002fa <uxListRemove>
					prvAddTaskToReadyList( pxTCB );
 8000cd8:	2301      	movs	r3, #1
 8000cda:	2014      	movs	r0, #20
 8000cdc:	6ae2      	ldr	r2, [r4, #44]	; 0x2c
 8000cde:	6929      	ldr	r1, [r5, #16]
 8000ce0:	4093      	lsls	r3, r2
 8000ce2:	430b      	orrs	r3, r1
 8000ce4:	612b      	str	r3, [r5, #16]
 8000ce6:	f105 0348 	add.w	r3, r5, #72	; 0x48
 8000cea:	fb00 3002 	mla	r0, r0, r2, r3
 8000cee:	4631      	mov	r1, r6
 8000cf0:	f7ff fae0 	bl	80002b4 <vListInsertEnd>
					if( pxTCB->uxPriority >= pxCurrentTCB->uxPriority )
 8000cf4:	68eb      	ldr	r3, [r5, #12]
 8000cf6:	6ae2      	ldr	r2, [r4, #44]	; 0x2c
 8000cf8:	6adb      	ldr	r3, [r3, #44]	; 0x2c
 8000cfa:	429a      	cmp	r2, r3
 8000cfc:	d307      	bcc.n	8000d0e <vTaskResume+0x66>
						taskYIELD_IF_USING_PREEMPTION();
 8000cfe:	f04f 5280 	mov.w	r2, #268435456	; 0x10000000
 8000d02:	4b06      	ldr	r3, [pc, #24]	; (8000d1c <vTaskResume+0x74>)
 8000d04:	601a      	str	r2, [r3, #0]
 8000d06:	f3bf 8f4f 	dsb	sy
 8000d0a:	f3bf 8f6f 	isb	sy
	}
 8000d0e:	e8bd 4070 	ldmia.w	sp!, {r4, r5, r6, lr}
			taskEXIT_CRITICAL();
 8000d12:	f7ff bb57 	b.w	80003c4 <vPortExitCritical>
	}
 8000d16:	bd70      	pop	{r4, r5, r6, pc}
 8000d18:	200044c4 	.word	0x200044c4
 8000d1c:	e000ed04 	.word	0xe000ed04

08000d20 <vTaskStartScheduler>:
{
 8000d20:	b537      	push	{r0, r1, r2, r4, r5, lr}
		xReturn = xTaskCreate(	prvIdleTask,
 8000d22:	2500      	movs	r5, #0
 8000d24:	4c10      	ldr	r4, [pc, #64]	; (8000d68 <vTaskStartScheduler+0x48>)
 8000d26:	2280      	movs	r2, #128	; 0x80
 8000d28:	f104 03f4 	add.w	r3, r4, #244	; 0xf4
 8000d2c:	9301      	str	r3, [sp, #4]
 8000d2e:	490f      	ldr	r1, [pc, #60]	; (8000d6c <vTaskStartScheduler+0x4c>)
 8000d30:	462b      	mov	r3, r5
 8000d32:	480f      	ldr	r0, [pc, #60]	; (8000d70 <vTaskStartScheduler+0x50>)
 8000d34:	9500      	str	r5, [sp, #0]
 8000d36:	f7ff fef5 	bl	8000b24 <xTaskCreate>
	if( xReturn == pdPASS )
 8000d3a:	2801      	cmp	r0, #1
 8000d3c:	d112      	bne.n	8000d64 <vTaskStartScheduler+0x44>
	__asm volatile
 8000d3e:	f04f 03bf 	mov.w	r3, #191	; 0xbf
 8000d42:	f383 8811 	msr	BASEPRI, r3
 8000d46:	f3bf 8f6f 	isb	sy
 8000d4a:	f3bf 8f4f 	dsb	sy
		xNextTaskUnblockTime = portMAX_DELAY;
 8000d4e:	f04f 33ff 	mov.w	r3, #4294967295
 8000d52:	6063      	str	r3, [r4, #4]
		xSchedulerRunning = pdTRUE;
 8000d54:	f8c4 00e8 	str.w	r0, [r4, #232]	; 0xe8
		xTickCount = ( TickType_t ) configINITIAL_TICK_COUNT;
 8000d58:	60a5      	str	r5, [r4, #8]
}
 8000d5a:	b003      	add	sp, #12
 8000d5c:	e8bd 4030 	ldmia.w	sp!, {r4, r5, lr}
		if( xPortStartScheduler() != pdFALSE )
 8000d60:	f7ff bb8a 	b.w	8000478 <xPortStartScheduler>
}
 8000d64:	b003      	add	sp, #12
 8000d66:	bd30      	pop	{r4, r5, pc}
 8000d68:	200044c4 	.word	0x200044c4
 8000d6c:	08003a6c 	.word	0x08003a6c
 8000d70:	08000ad1 	.word	0x08000ad1

08000d74 <vTaskSuspendAll>:
	++uxSchedulerSuspended;
 8000d74:	4a03      	ldr	r2, [pc, #12]	; (8000d84 <vTaskSuspendAll+0x10>)
 8000d76:	f8d2 30f0 	ldr.w	r3, [r2, #240]	; 0xf0
 8000d7a:	3301      	adds	r3, #1
 8000d7c:	f8c2 30f0 	str.w	r3, [r2, #240]	; 0xf0
}
 8000d80:	4770      	bx	lr
 8000d82:	bf00      	nop
 8000d84:	200044c4 	.word	0x200044c4

08000d88 <xTaskGetTickCount>:
		xTicks = xTickCount;
 8000d88:	4b01      	ldr	r3, [pc, #4]	; (8000d90 <xTaskGetTickCount+0x8>)
 8000d8a:	6898      	ldr	r0, [r3, #8]
}
 8000d8c:	4770      	bx	lr
 8000d8e:	bf00      	nop
 8000d90:	200044c4 	.word	0x200044c4

08000d94 <xTaskIncrementTick>:
{
 8000d94:	e92d 4ff8 	stmdb	sp!, {r3, r4, r5, r6, r7, r8, r9, sl, fp, lr}
	if( uxSchedulerSuspended == ( UBaseType_t ) pdFALSE )
 8000d98:	4c2f      	ldr	r4, [pc, #188]	; (8000e58 <xTaskIncrementTick+0xc4>)
 8000d9a:	f8d4 30f0 	ldr.w	r3, [r4, #240]	; 0xf0
 8000d9e:	2b00      	cmp	r3, #0
 8000da0:	d153      	bne.n	8000e4a <xTaskIncrementTick+0xb6>
		const TickType_t xConstTickCount = xTickCount + ( TickType_t ) 1;
 8000da2:	68a7      	ldr	r7, [r4, #8]
 8000da4:	3701      	adds	r7, #1
		xTickCount = xConstTickCount;
 8000da6:	60a7      	str	r7, [r4, #8]
		if( xConstTickCount == ( TickType_t ) 0U ) /*lint !e774 'if' does not always evaluate to false as it is looking for an overflow. */
 8000da8:	b957      	cbnz	r7, 8000dc0 <xTaskIncrementTick+0x2c>
			taskSWITCH_DELAYED_LISTS();
 8000daa:	6823      	ldr	r3, [r4, #0]
 8000dac:	6aa2      	ldr	r2, [r4, #40]	; 0x28
 8000dae:	6022      	str	r2, [r4, #0]
 8000db0:	62a3      	str	r3, [r4, #40]	; 0x28
 8000db2:	f8d4 30f8 	ldr.w	r3, [r4, #248]	; 0xf8
 8000db6:	3301      	adds	r3, #1
 8000db8:	f8c4 30f8 	str.w	r3, [r4, #248]	; 0xf8
 8000dbc:	f7ff fe42 	bl	8000a44 <prvResetNextTaskUnblockTime>
		if( xConstTickCount >= xNextTaskUnblockTime )
 8000dc0:	6863      	ldr	r3, [r4, #4]
BaseType_t xSwitchRequired = pdFALSE;
 8000dc2:	2500      	movs	r5, #0
		if( xConstTickCount >= xNextTaskUnblockTime )
 8000dc4:	42bb      	cmp	r3, r7
 8000dc6:	d910      	bls.n	8000dea <xTaskIncrementTick+0x56>
			if( listCURRENT_LIST_LENGTH( &( pxReadyTasksLists[ pxCurrentTCB->uxPriority ] ) ) > ( UBaseType_t ) 1 )
 8000dc8:	2214      	movs	r2, #20
 8000dca:	68e3      	ldr	r3, [r4, #12]
 8000dcc:	6adb      	ldr	r3, [r3, #44]	; 0x2c
 8000dce:	fb02 4303 	mla	r3, r2, r3, r4
 8000dd2:	6c9b      	ldr	r3, [r3, #72]	; 0x48
				xSwitchRequired = pdTRUE;
 8000dd4:	2b02      	cmp	r3, #2
 8000dd6:	bf28      	it	cs
 8000dd8:	2501      	movcs	r5, #1
		if( xYieldPending != pdFALSE )
 8000dda:	f8d4 3100 	ldr.w	r3, [r4, #256]	; 0x100
			xSwitchRequired = pdTRUE;
 8000dde:	2b00      	cmp	r3, #0
}
 8000de0:	bf0c      	ite	eq
 8000de2:	4628      	moveq	r0, r5
 8000de4:	2001      	movne	r0, #1
 8000de6:	e8bd 8ff8 	ldmia.w	sp!, {r3, r4, r5, r6, r7, r8, r9, sl, fp, pc}
					prvAddTaskToReadyList( pxTCB );
 8000dea:	f04f 0a01 	mov.w	sl, #1
 8000dee:	f04f 0914 	mov.w	r9, #20
 8000df2:	f8df 8068 	ldr.w	r8, [pc, #104]	; 8000e5c <xTaskIncrementTick+0xc8>
				if( listLIST_IS_EMPTY( pxDelayedTaskList ) != pdFALSE )
 8000df6:	6823      	ldr	r3, [r4, #0]
 8000df8:	681b      	ldr	r3, [r3, #0]
 8000dfa:	b91b      	cbnz	r3, 8000e04 <xTaskIncrementTick+0x70>
					xNextTaskUnblockTime = portMAX_DELAY; /*lint !e961 MISRA exception as the casts are only redundant for some ports. */
 8000dfc:	f04f 33ff 	mov.w	r3, #4294967295
						xNextTaskUnblockTime = xItemValue;
 8000e00:	6063      	str	r3, [r4, #4]
						break; /*lint !e9011 Code structure here is deedmed easier to understand with multiple breaks. */
 8000e02:	e7e1      	b.n	8000dc8 <xTaskIncrementTick+0x34>
					pxTCB = listGET_OWNER_OF_HEAD_ENTRY( pxDelayedTaskList ); /*lint !e9079 void * is used as this macro is used with timers and co-routines too.  Alignment is known to be fine as the type of the pointer stored and retrieved is the same. */
 8000e04:	6823      	ldr	r3, [r4, #0]
 8000e06:	68db      	ldr	r3, [r3, #12]
 8000e08:	68de      	ldr	r6, [r3, #12]
					xItemValue = listGET_LIST_ITEM_VALUE( &( pxTCB->xStateListItem ) );
 8000e0a:	6873      	ldr	r3, [r6, #4]
					if( xConstTickCount < xItemValue )
 8000e0c:	429f      	cmp	r7, r3
 8000e0e:	d3f7      	bcc.n	8000e00 <xTaskIncrementTick+0x6c>
					( void ) uxListRemove( &( pxTCB->xStateListItem ) );
 8000e10:	f106 0b04 	add.w	fp, r6, #4
 8000e14:	4658      	mov	r0, fp
 8000e16:	f7ff fa70 	bl	80002fa <uxListRemove>
					if( listLIST_ITEM_CONTAINER( &( pxTCB->xEventListItem ) ) != NULL )
 8000e1a:	6ab3      	ldr	r3, [r6, #40]	; 0x28
 8000e1c:	b11b      	cbz	r3, 8000e26 <xTaskIncrementTick+0x92>
						( void ) uxListRemove( &( pxTCB->xEventListItem ) );
 8000e1e:	f106 0018 	add.w	r0, r6, #24
 8000e22:	f7ff fa6a 	bl	80002fa <uxListRemove>
					prvAddTaskToReadyList( pxTCB );
 8000e26:	6af0      	ldr	r0, [r6, #44]	; 0x2c
 8000e28:	6922      	ldr	r2, [r4, #16]
 8000e2a:	fa0a f300 	lsl.w	r3, sl, r0
 8000e2e:	4313      	orrs	r3, r2
 8000e30:	4659      	mov	r1, fp
 8000e32:	fb09 8000 	mla	r0, r9, r0, r8
 8000e36:	6123      	str	r3, [r4, #16]
 8000e38:	f7ff fa3c 	bl	80002b4 <vListInsertEnd>
						if( pxTCB->uxPriority >= pxCurrentTCB->uxPriority )
 8000e3c:	68e3      	ldr	r3, [r4, #12]
 8000e3e:	6af2      	ldr	r2, [r6, #44]	; 0x2c
 8000e40:	6adb      	ldr	r3, [r3, #44]	; 0x2c
							xSwitchRequired = pdTRUE;
 8000e42:	429a      	cmp	r2, r3
 8000e44:	bf28      	it	cs
 8000e46:	2501      	movcs	r5, #1
 8000e48:	e7d5      	b.n	8000df6 <xTaskIncrementTick+0x62>
		++uxPendedTicks;
 8000e4a:	f8d4 30fc 	ldr.w	r3, [r4, #252]	; 0xfc
BaseType_t xSwitchRequired = pdFALSE;
 8000e4e:	2500      	movs	r5, #0
		++uxPendedTicks;
 8000e50:	3301      	adds	r3, #1
 8000e52:	f8c4 30fc 	str.w	r3, [r4, #252]	; 0xfc
 8000e56:	e7c0      	b.n	8000dda <xTaskIncrementTick+0x46>
 8000e58:	200044c4 	.word	0x200044c4
 8000e5c:	2000450c 	.word	0x2000450c

08000e60 <xTaskResumeAll>:
{
 8000e60:	e92d 43f8 	stmdb	sp!, {r3, r4, r5, r6, r7, r8, r9, lr}
		--uxSchedulerSuspended;
 8000e64:	4c2c      	ldr	r4, [pc, #176]	; (8000f18 <xTaskResumeAll+0xb8>)
	taskENTER_CRITICAL();
 8000e66:	f7ff fa9d 	bl	80003a4 <vPortEnterCritical>
		--uxSchedulerSuspended;
 8000e6a:	f8d4 30f0 	ldr.w	r3, [r4, #240]	; 0xf0
 8000e6e:	3b01      	subs	r3, #1
 8000e70:	f8c4 30f0 	str.w	r3, [r4, #240]	; 0xf0
		if( uxSchedulerSuspended == ( UBaseType_t ) pdFALSE )
 8000e74:	f8d4 50f0 	ldr.w	r5, [r4, #240]	; 0xf0
 8000e78:	b12d      	cbz	r5, 8000e86 <xTaskResumeAll+0x26>
BaseType_t xAlreadyYielded = pdFALSE;
 8000e7a:	2400      	movs	r4, #0
	taskEXIT_CRITICAL();
 8000e7c:	f7ff faa2 	bl	80003c4 <vPortExitCritical>
}
 8000e80:	4620      	mov	r0, r4
 8000e82:	e8bd 83f8 	ldmia.w	sp!, {r3, r4, r5, r6, r7, r8, r9, pc}
			if( uxCurrentNumberOfTasks > ( UBaseType_t ) 0U )
 8000e86:	6c23      	ldr	r3, [r4, #64]	; 0x40
 8000e88:	2b00      	cmp	r3, #0
 8000e8a:	d0f6      	beq.n	8000e7a <xTaskResumeAll+0x1a>
					prvAddTaskToReadyList( pxTCB );
 8000e8c:	2601      	movs	r6, #1
 8000e8e:	f04f 0814 	mov.w	r8, #20
 8000e92:	f104 0748 	add.w	r7, r4, #72	; 0x48
 8000e96:	e01d      	b.n	8000ed4 <xTaskResumeAll+0x74>
					pxTCB = listGET_OWNER_OF_HEAD_ENTRY( ( &xPendingReadyList ) ); /*lint !e9079 void * is used as this macro is used with timers and co-routines too.  Alignment is known to be fine as the type of the pointer stored and retrieved is the same. */
 8000e98:	f8d4 30e0 	ldr.w	r3, [r4, #224]	; 0xe0
 8000e9c:	68dd      	ldr	r5, [r3, #12]
					( void ) uxListRemove( &( pxTCB->xStateListItem ) );
 8000e9e:	f105 0904 	add.w	r9, r5, #4
					( void ) uxListRemove( &( pxTCB->xEventListItem ) );
 8000ea2:	f105 0018 	add.w	r0, r5, #24
 8000ea6:	f7ff fa28 	bl	80002fa <uxListRemove>
					( void ) uxListRemove( &( pxTCB->xStateListItem ) );
 8000eaa:	4648      	mov	r0, r9
 8000eac:	f7ff fa25 	bl	80002fa <uxListRemove>
					prvAddTaskToReadyList( pxTCB );
 8000eb0:	6ae8      	ldr	r0, [r5, #44]	; 0x2c
 8000eb2:	6922      	ldr	r2, [r4, #16]
 8000eb4:	fa06 f300 	lsl.w	r3, r6, r0
 8000eb8:	4313      	orrs	r3, r2
 8000eba:	4649      	mov	r1, r9
 8000ebc:	fb08 7000 	mla	r0, r8, r0, r7
 8000ec0:	6123      	str	r3, [r4, #16]
 8000ec2:	f7ff f9f7 	bl	80002b4 <vListInsertEnd>
					if( pxTCB->uxPriority >= pxCurrentTCB->uxPriority )
 8000ec6:	68e3      	ldr	r3, [r4, #12]
 8000ec8:	6aea      	ldr	r2, [r5, #44]	; 0x2c
 8000eca:	6adb      	ldr	r3, [r3, #44]	; 0x2c
 8000ecc:	429a      	cmp	r2, r3
 8000ece:	d301      	bcc.n	8000ed4 <xTaskResumeAll+0x74>
						xYieldPending = pdTRUE;
 8000ed0:	f8c4 6100 	str.w	r6, [r4, #256]	; 0x100
				while( listLIST_IS_EMPTY( &xPendingReadyList ) == pdFALSE )
 8000ed4:	f8d4 30d4 	ldr.w	r3, [r4, #212]	; 0xd4
 8000ed8:	2b00      	cmp	r3, #0
 8000eda:	d1dd      	bne.n	8000e98 <xTaskResumeAll+0x38>
				if( pxTCB != NULL )
 8000edc:	b10d      	cbz	r5, 8000ee2 <xTaskResumeAll+0x82>
					prvResetNextTaskUnblockTime();
 8000ede:	f7ff fdb1 	bl	8000a44 <prvResetNextTaskUnblockTime>
					UBaseType_t uxPendedCounts = uxPendedTicks; /* Non-volatile copy. */
 8000ee2:	f8d4 50fc 	ldr.w	r5, [r4, #252]	; 0xfc
					if( uxPendedCounts > ( UBaseType_t ) 0U )
 8000ee6:	b14d      	cbz	r5, 8000efc <xTaskResumeAll+0x9c>
								xYieldPending = pdTRUE;
 8000ee8:	2601      	movs	r6, #1
							if( xTaskIncrementTick() != pdFALSE )
 8000eea:	f7ff ff53 	bl	8000d94 <xTaskIncrementTick>
 8000eee:	b108      	cbz	r0, 8000ef4 <xTaskResumeAll+0x94>
								xYieldPending = pdTRUE;
 8000ef0:	f8c4 6100 	str.w	r6, [r4, #256]	; 0x100
						} while( uxPendedCounts > ( UBaseType_t ) 0U );
 8000ef4:	3d01      	subs	r5, #1
 8000ef6:	d1f8      	bne.n	8000eea <xTaskResumeAll+0x8a>
						uxPendedTicks = 0;
 8000ef8:	f8c4 50fc 	str.w	r5, [r4, #252]	; 0xfc
				if( xYieldPending != pdFALSE )
 8000efc:	f8d4 3100 	ldr.w	r3, [r4, #256]	; 0x100
 8000f00:	2b00      	cmp	r3, #0
 8000f02:	d0ba      	beq.n	8000e7a <xTaskResumeAll+0x1a>
					taskYIELD_IF_USING_PREEMPTION();
 8000f04:	f04f 5280 	mov.w	r2, #268435456	; 0x10000000
 8000f08:	4b04      	ldr	r3, [pc, #16]	; (8000f1c <xTaskResumeAll+0xbc>)
 8000f0a:	601a      	str	r2, [r3, #0]
 8000f0c:	f3bf 8f4f 	dsb	sy
 8000f10:	f3bf 8f6f 	isb	sy
						xAlreadyYielded = pdTRUE;
 8000f14:	2401      	movs	r4, #1
 8000f16:	e7b1      	b.n	8000e7c <xTaskResumeAll+0x1c>
 8000f18:	200044c4 	.word	0x200044c4
 8000f1c:	e000ed04 	.word	0xe000ed04

08000f20 <vTaskDelayUntil>:
	{
 8000f20:	b510      	push	{r4, lr}
		vTaskSuspendAll();
 8000f22:	f7ff ff27 	bl	8000d74 <vTaskSuspendAll>
			const TickType_t xConstTickCount = xTickCount;
 8000f26:	4b0f      	ldr	r3, [pc, #60]	; (8000f64 <vTaskDelayUntil+0x44>)
			xTimeToWake = *pxPreviousWakeTime + xTimeIncrement;
 8000f28:	6804      	ldr	r4, [r0, #0]
			const TickType_t xConstTickCount = xTickCount;
 8000f2a:	689a      	ldr	r2, [r3, #8]
			xTimeToWake = *pxPreviousWakeTime + xTimeIncrement;
 8000f2c:	1863      	adds	r3, r4, r1
 8000f2e:	bf2c      	ite	cs
 8000f30:	2101      	movcs	r1, #1
 8000f32:	2100      	movcc	r1, #0
			if( xConstTickCount < *pxPreviousWakeTime )
 8000f34:	4294      	cmp	r4, r2
			*pxPreviousWakeTime = xTimeToWake;
 8000f36:	6003      	str	r3, [r0, #0]
			if( xConstTickCount < *pxPreviousWakeTime )
 8000f38:	d90c      	bls.n	8000f54 <vTaskDelayUntil+0x34>
				if( ( xTimeToWake < *pxPreviousWakeTime ) && ( xTimeToWake > xConstTickCount ) )
 8000f3a:	b961      	cbnz	r1, 8000f56 <vTaskDelayUntil+0x36>
		xAlreadyYielded = xTaskResumeAll();
 8000f3c:	f7ff ff90 	bl	8000e60 <xTaskResumeAll>
		if( xAlreadyYielded == pdFALSE )
 8000f40:	b938      	cbnz	r0, 8000f52 <vTaskDelayUntil+0x32>
			portYIELD_WITHIN_API();
 8000f42:	f04f 5280 	mov.w	r2, #268435456	; 0x10000000
 8000f46:	4b08      	ldr	r3, [pc, #32]	; (8000f68 <vTaskDelayUntil+0x48>)
 8000f48:	601a      	str	r2, [r3, #0]
 8000f4a:	f3bf 8f4f 	dsb	sy
 8000f4e:	f3bf 8f6f 	isb	sy
	}
 8000f52:	bd10      	pop	{r4, pc}
				if( ( xTimeToWake < *pxPreviousWakeTime ) || ( xTimeToWake > xConstTickCount ) )
 8000f54:	b909      	cbnz	r1, 8000f5a <vTaskDelayUntil+0x3a>
 8000f56:	429a      	cmp	r2, r3
 8000f58:	d2f0      	bcs.n	8000f3c <vTaskDelayUntil+0x1c>
				prvAddCurrentTaskToDelayedList( xTimeToWake - xConstTickCount, pdFALSE );
 8000f5a:	2100      	movs	r1, #0
 8000f5c:	1a98      	subs	r0, r3, r2
 8000f5e:	f7ff fd81 	bl	8000a64 <prvAddCurrentTaskToDelayedList>
 8000f62:	e7eb      	b.n	8000f3c <vTaskDelayUntil+0x1c>
 8000f64:	200044c4 	.word	0x200044c4
 8000f68:	e000ed04 	.word	0xe000ed04

08000f6c <vTaskSwitchContext>:
	if( uxSchedulerSuspended != ( UBaseType_t ) pdFALSE )
 8000f6c:	4b12      	ldr	r3, [pc, #72]	; (8000fb8 <vTaskSwitchContext+0x4c>)
{
 8000f6e:	b530      	push	{r4, r5, lr}
	if( uxSchedulerSuspended != ( UBaseType_t ) pdFALSE )
 8000f70:	f8d3 10f0 	ldr.w	r1, [r3, #240]	; 0xf0
 8000f74:	461a      	mov	r2, r3
 8000f76:	b119      	cbz	r1, 8000f80 <vTaskSwitchContext+0x14>
		xYieldPending = pdTRUE;
 8000f78:	2201      	movs	r2, #1
 8000f7a:	f8c3 2100 	str.w	r2, [r3, #256]	; 0x100
}
 8000f7e:	bd30      	pop	{r4, r5, pc}
		xYieldPending = pdFALSE;
 8000f80:	f8c3 1100 	str.w	r1, [r3, #256]	; 0x100
		taskSELECT_HIGHEST_PRIORITY_TASK(); /*lint !e9079 void * is used as this macro is used with timers and co-routines too.  Alignment is known to be fine as the type of the pointer stored and retrieved is the same. */
 8000f84:	691b      	ldr	r3, [r3, #16]
		__asm volatile ( "clz %0, %1" : "=r" ( ucReturn ) : "r" ( ulBitmap ) : "memory" );
 8000f86:	fab3 f383 	clz	r3, r3
 8000f8a:	2014      	movs	r0, #20
 8000f8c:	b2db      	uxtb	r3, r3
 8000f8e:	f1c3 031f 	rsb	r3, r3, #31
 8000f92:	fb00 f103 	mul.w	r1, r0, r3
 8000f96:	1854      	adds	r4, r2, r1
 8000f98:	4621      	mov	r1, r4
 8000f9a:	6ce5      	ldr	r5, [r4, #76]	; 0x4c
 8000f9c:	3150      	adds	r1, #80	; 0x50
 8000f9e:	686d      	ldr	r5, [r5, #4]
 8000fa0:	fb00 2303 	mla	r3, r0, r3, r2
 8000fa4:	428d      	cmp	r5, r1
 8000fa6:	bf08      	it	eq
 8000fa8:	6869      	ldreq	r1, [r5, #4]
 8000faa:	64e5      	str	r5, [r4, #76]	; 0x4c
 8000fac:	bf08      	it	eq
 8000fae:	64e1      	streq	r1, [r4, #76]	; 0x4c
 8000fb0:	6cdb      	ldr	r3, [r3, #76]	; 0x4c
 8000fb2:	68db      	ldr	r3, [r3, #12]
 8000fb4:	60d3      	str	r3, [r2, #12]
}
 8000fb6:	e7e2      	b.n	8000f7e <vTaskSwitchContext+0x12>
 8000fb8:	200044c4 	.word	0x200044c4

08000fbc <vTaskSuspend>:
	{
 8000fbc:	b570      	push	{r4, r5, r6, lr}
 8000fbe:	4604      	mov	r4, r0
 8000fc0:	4d25      	ldr	r5, [pc, #148]	; (8001058 <vTaskSuspend+0x9c>)
		taskENTER_CRITICAL();
 8000fc2:	f7ff f9ef 	bl	80003a4 <vPortEnterCritical>
			pxTCB = prvGetTCBFromHandle( xTaskToSuspend );
 8000fc6:	b904      	cbnz	r4, 8000fca <vTaskSuspend+0xe>
 8000fc8:	68ec      	ldr	r4, [r5, #12]
			if( uxListRemove( &( pxTCB->xStateListItem ) ) == ( UBaseType_t ) 0 )
 8000fca:	1d26      	adds	r6, r4, #4
 8000fcc:	4630      	mov	r0, r6
 8000fce:	f7ff f994 	bl	80002fa <uxListRemove>
 8000fd2:	b958      	cbnz	r0, 8000fec <vTaskSuspend+0x30>
				taskRESET_READY_PRIORITY( pxTCB->uxPriority );
 8000fd4:	2014      	movs	r0, #20
 8000fd6:	6ae1      	ldr	r1, [r4, #44]	; 0x2c
 8000fd8:	fb00 5001 	mla	r0, r0, r1, r5
 8000fdc:	6c83      	ldr	r3, [r0, #72]	; 0x48
 8000fde:	b92b      	cbnz	r3, 8000fec <vTaskSuspend+0x30>
 8000fe0:	2201      	movs	r2, #1
 8000fe2:	692b      	ldr	r3, [r5, #16]
 8000fe4:	408a      	lsls	r2, r1
 8000fe6:	ea23 0302 	bic.w	r3, r3, r2
 8000fea:	612b      	str	r3, [r5, #16]
			if( listLIST_ITEM_CONTAINER( &( pxTCB->xEventListItem ) ) != NULL )
 8000fec:	6aa3      	ldr	r3, [r4, #40]	; 0x28
 8000fee:	b11b      	cbz	r3, 8000ff8 <vTaskSuspend+0x3c>
				( void ) uxListRemove( &( pxTCB->xEventListItem ) );
 8000ff0:	f104 0018 	add.w	r0, r4, #24
 8000ff4:	f7ff f981 	bl	80002fa <uxListRemove>
			vListInsertEnd( &xSuspendedTaskList, &( pxTCB->xStateListItem ) );
 8000ff8:	4631      	mov	r1, r6
 8000ffa:	4818      	ldr	r0, [pc, #96]	; (800105c <vTaskSuspend+0xa0>)
 8000ffc:	f7ff f95a 	bl	80002b4 <vListInsertEnd>
				if( pxTCB->ucNotifyState == taskWAITING_NOTIFICATION )
 8001000:	f894 3050 	ldrb.w	r3, [r4, #80]	; 0x50
 8001004:	2b01      	cmp	r3, #1
					pxTCB->ucNotifyState = taskNOT_WAITING_NOTIFICATION;
 8001006:	bf04      	itt	eq
 8001008:	2300      	moveq	r3, #0
 800100a:	f884 3050 	strbeq.w	r3, [r4, #80]	; 0x50
		taskEXIT_CRITICAL();
 800100e:	f7ff f9d9 	bl	80003c4 <vPortExitCritical>
		if( xSchedulerRunning != pdFALSE )
 8001012:	f8d5 30e8 	ldr.w	r3, [r5, #232]	; 0xe8
 8001016:	b12b      	cbz	r3, 8001024 <vTaskSuspend+0x68>
			taskENTER_CRITICAL();
 8001018:	f7ff f9c4 	bl	80003a4 <vPortEnterCritical>
				prvResetNextTaskUnblockTime();
 800101c:	f7ff fd12 	bl	8000a44 <prvResetNextTaskUnblockTime>
			taskEXIT_CRITICAL();
 8001020:	f7ff f9d0 	bl	80003c4 <vPortExitCritical>
		if( pxTCB == pxCurrentTCB )
 8001024:	68eb      	ldr	r3, [r5, #12]
 8001026:	42a3      	cmp	r3, r4
 8001028:	d10a      	bne.n	8001040 <vTaskSuspend+0x84>
			if( xSchedulerRunning != pdFALSE )
 800102a:	f8d5 30e8 	ldr.w	r3, [r5, #232]	; 0xe8
 800102e:	b143      	cbz	r3, 8001042 <vTaskSuspend+0x86>
				portYIELD_WITHIN_API();
 8001030:	f04f 5280 	mov.w	r2, #268435456	; 0x10000000
 8001034:	4b0a      	ldr	r3, [pc, #40]	; (8001060 <vTaskSuspend+0xa4>)
 8001036:	601a      	str	r2, [r3, #0]
 8001038:	f3bf 8f4f 	dsb	sy
 800103c:	f3bf 8f6f 	isb	sy
	}
 8001040:	bd70      	pop	{r4, r5, r6, pc}
				if( listCURRENT_LIST_LENGTH( &xSuspendedTaskList ) == uxCurrentNumberOfTasks ) /*lint !e931 Right has no side effect, just volatile. */
 8001042:	6969      	ldr	r1, [r5, #20]
 8001044:	6c2a      	ldr	r2, [r5, #64]	; 0x40
 8001046:	4291      	cmp	r1, r2
 8001048:	d101      	bne.n	800104e <vTaskSuspend+0x92>
					pxCurrentTCB = NULL;
 800104a:	60eb      	str	r3, [r5, #12]
 800104c:	e7f8      	b.n	8001040 <vTaskSuspend+0x84>
	}
 800104e:	e8bd 4070 	ldmia.w	sp!, {r4, r5, r6, lr}
					vTaskSwitchContext();
 8001052:	f7ff bf8b 	b.w	8000f6c <vTaskSwitchContext>
 8001056:	bf00      	nop
 8001058:	200044c4 	.word	0x200044c4
 800105c:	200044d8 	.word	0x200044d8
 8001060:	e000ed04 	.word	0xe000ed04

08001064 <vTaskPlaceOnEventList>:
{
 8001064:	b510      	push	{r4, lr}
 8001066:	460c      	mov	r4, r1
	vListInsert( pxEventList, &( pxCurrentTCB->xEventListItem ) );
 8001068:	4b05      	ldr	r3, [pc, #20]	; (8001080 <vTaskPlaceOnEventList+0x1c>)
 800106a:	68d9      	ldr	r1, [r3, #12]
 800106c:	3118      	adds	r1, #24
 800106e:	f7ff f92d 	bl	80002cc <vListInsert>
	prvAddCurrentTaskToDelayedList( xTicksToWait, pdTRUE );
 8001072:	4620      	mov	r0, r4
}
 8001074:	e8bd 4010 	ldmia.w	sp!, {r4, lr}
	prvAddCurrentTaskToDelayedList( xTicksToWait, pdTRUE );
 8001078:	2101      	movs	r1, #1
 800107a:	f7ff bcf3 	b.w	8000a64 <prvAddCurrentTaskToDelayedList>
 800107e:	bf00      	nop
 8001080:	200044c4 	.word	0x200044c4

08001084 <xTaskRemoveFromEventList>:
	pxUnblockedTCB = listGET_OWNER_OF_HEAD_ENTRY( pxEventList ); /*lint !e9079 void * is used as this macro is used with timers and co-routines too.  Alignment is known to be fine as the type of the pointer stored and retrieved is the same. */
 8001084:	68c3      	ldr	r3, [r0, #12]
{
 8001086:	b570      	push	{r4, r5, r6, lr}
	pxUnblockedTCB = listGET_OWNER_OF_HEAD_ENTRY( pxEventList ); /*lint !e9079 void * is used as this macro is used with timers and co-routines too.  Alignment is known to be fine as the type of the pointer stored and retrieved is the same. */
 8001088:	68dd      	ldr	r5, [r3, #12]
	if( uxSchedulerSuspended == ( UBaseType_t ) pdFALSE )
 800108a:	4c14      	ldr	r4, [pc, #80]	; (80010dc <xTaskRemoveFromEventList+0x58>)
	( void ) uxListRemove( &( pxUnblockedTCB->xEventListItem ) );
 800108c:	f105 0618 	add.w	r6, r5, #24
 8001090:	4630      	mov	r0, r6
 8001092:	f7ff f932 	bl	80002fa <uxListRemove>
	if( uxSchedulerSuspended == ( UBaseType_t ) pdFALSE )
 8001096:	f8d4 30f0 	ldr.w	r3, [r4, #240]	; 0xf0
 800109a:	b9db      	cbnz	r3, 80010d4 <xTaskRemoveFromEventList+0x50>
		( void ) uxListRemove( &( pxUnblockedTCB->xStateListItem ) );
 800109c:	1d2e      	adds	r6, r5, #4
 800109e:	4630      	mov	r0, r6
 80010a0:	f7ff f92b 	bl	80002fa <uxListRemove>
		prvAddTaskToReadyList( pxUnblockedTCB );
 80010a4:	2301      	movs	r3, #1
 80010a6:	2014      	movs	r0, #20
 80010a8:	6aea      	ldr	r2, [r5, #44]	; 0x2c
 80010aa:	6921      	ldr	r1, [r4, #16]
 80010ac:	4093      	lsls	r3, r2
 80010ae:	430b      	orrs	r3, r1
 80010b0:	4631      	mov	r1, r6
 80010b2:	6123      	str	r3, [r4, #16]
 80010b4:	f104 0348 	add.w	r3, r4, #72	; 0x48
 80010b8:	fb00 3002 	mla	r0, r0, r2, r3
		vListInsertEnd( &( xPendingReadyList ), &( pxUnblockedTCB->xEventListItem ) );
 80010bc:	f7ff f8fa 	bl	80002b4 <vListInsertEnd>
	if( pxUnblockedTCB->uxPriority > pxCurrentTCB->uxPriority )
 80010c0:	68e3      	ldr	r3, [r4, #12]
 80010c2:	6aea      	ldr	r2, [r5, #44]	; 0x2c
 80010c4:	6adb      	ldr	r3, [r3, #44]	; 0x2c
 80010c6:	429a      	cmp	r2, r3
		xYieldPending = pdTRUE;
 80010c8:	bf8a      	itet	hi
 80010ca:	2001      	movhi	r0, #1
		xReturn = pdFALSE;
 80010cc:	2000      	movls	r0, #0
		xYieldPending = pdTRUE;
 80010ce:	f8c4 0100 	strhi.w	r0, [r4, #256]	; 0x100
}
 80010d2:	bd70      	pop	{r4, r5, r6, pc}
		vListInsertEnd( &( xPendingReadyList ), &( pxUnblockedTCB->xEventListItem ) );
 80010d4:	4631      	mov	r1, r6
 80010d6:	f104 00d4 	add.w	r0, r4, #212	; 0xd4
 80010da:	e7ef      	b.n	80010bc <xTaskRemoveFromEventList+0x38>
 80010dc:	200044c4 	.word	0x200044c4

080010e0 <vTaskInternalSetTimeOutState>:
	pxTimeOut->xOverflowCount = xNumOfOverflows;
 80010e0:	4b03      	ldr	r3, [pc, #12]	; (80010f0 <vTaskInternalSetTimeOutState+0x10>)
 80010e2:	f8d3 20f8 	ldr.w	r2, [r3, #248]	; 0xf8
	pxTimeOut->xTimeOnEntering = xTickCount;
 80010e6:	689b      	ldr	r3, [r3, #8]
	pxTimeOut->xOverflowCount = xNumOfOverflows;
 80010e8:	6002      	str	r2, [r0, #0]
	pxTimeOut->xTimeOnEntering = xTickCount;
 80010ea:	6043      	str	r3, [r0, #4]
}
 80010ec:	4770      	bx	lr
 80010ee:	bf00      	nop
 80010f0:	200044c4 	.word	0x200044c4

080010f4 <xTaskCheckForTimeOut>:
{
 80010f4:	b570      	push	{r4, r5, r6, lr}
 80010f6:	460c      	mov	r4, r1
 80010f8:	4605      	mov	r5, r0
	taskENTER_CRITICAL();
 80010fa:	f7ff f953 	bl	80003a4 <vPortEnterCritical>
			if( *pxTicksToWait == portMAX_DELAY )
 80010fe:	6823      	ldr	r3, [r4, #0]
		const TickType_t xConstTickCount = xTickCount;
 8001100:	480e      	ldr	r0, [pc, #56]	; (800113c <xTaskCheckForTimeOut+0x48>)
			if( *pxTicksToWait == portMAX_DELAY )
 8001102:	1c5a      	adds	r2, r3, #1
		const TickType_t xConstTickCount = xTickCount;
 8001104:	6881      	ldr	r1, [r0, #8]
			if( *pxTicksToWait == portMAX_DELAY )
 8001106:	d010      	beq.n	800112a <xTaskCheckForTimeOut+0x36>
		if( ( xNumOfOverflows != pxTimeOut->xOverflowCount ) && ( xConstTickCount >= pxTimeOut->xTimeOnEntering ) ) /*lint !e525 Indentation preferred as is to make code within pre-processor directives clearer. */
 8001108:	f8d0 00f8 	ldr.w	r0, [r0, #248]	; 0xf8
 800110c:	682e      	ldr	r6, [r5, #0]
		const TickType_t xElapsedTime = xConstTickCount - pxTimeOut->xTimeOnEntering;
 800110e:	686a      	ldr	r2, [r5, #4]
		if( ( xNumOfOverflows != pxTimeOut->xOverflowCount ) && ( xConstTickCount >= pxTimeOut->xTimeOnEntering ) ) /*lint !e525 Indentation preferred as is to make code within pre-processor directives clearer. */
 8001110:	4286      	cmp	r6, r0
 8001112:	d001      	beq.n	8001118 <xTaskCheckForTimeOut+0x24>
 8001114:	428a      	cmp	r2, r1
 8001116:	d90f      	bls.n	8001138 <xTaskCheckForTimeOut+0x44>
		const TickType_t xElapsedTime = xConstTickCount - pxTimeOut->xTimeOnEntering;
 8001118:	1a88      	subs	r0, r1, r2
		else if( xElapsedTime < *pxTicksToWait ) /*lint !e961 Explicit casting is only redundant with some compilers, whereas others require it to prevent integer conversion errors. */
 800111a:	4283      	cmp	r3, r0
 800111c:	d90a      	bls.n	8001134 <xTaskCheckForTimeOut+0x40>
			*pxTicksToWait -= xElapsedTime;
 800111e:	1a5b      	subs	r3, r3, r1
 8001120:	4413      	add	r3, r2
			vTaskInternalSetTimeOutState( pxTimeOut );
 8001122:	4628      	mov	r0, r5
			*pxTicksToWait -= xElapsedTime;
 8001124:	6023      	str	r3, [r4, #0]
			vTaskInternalSetTimeOutState( pxTimeOut );
 8001126:	f7ff ffdb 	bl	80010e0 <vTaskInternalSetTimeOutState>
				xReturn = pdFALSE;
 800112a:	2400      	movs	r4, #0
	taskEXIT_CRITICAL();
 800112c:	f7ff f94a 	bl	80003c4 <vPortExitCritical>
}
 8001130:	4620      	mov	r0, r4
 8001132:	bd70      	pop	{r4, r5, r6, pc}
			*pxTicksToWait = 0;
 8001134:	2300      	movs	r3, #0
 8001136:	6023      	str	r3, [r4, #0]
			xReturn = pdTRUE;
 8001138:	2401      	movs	r4, #1
 800113a:	e7f7      	b.n	800112c <xTaskCheckForTimeOut+0x38>
 800113c:	200044c4 	.word	0x200044c4

08001140 <vTaskMissedYield>:
	xYieldPending = pdTRUE;
 8001140:	2201      	movs	r2, #1
 8001142:	4b02      	ldr	r3, [pc, #8]	; (800114c <vTaskMissedYield+0xc>)
 8001144:	f8c3 2100 	str.w	r2, [r3, #256]	; 0x100
}
 8001148:	4770      	bx	lr
 800114a:	bf00      	nop
 800114c:	200044c4 	.word	0x200044c4

08001150 <xTaskPriorityInherit>:
	{
 8001150:	e92d 41f0 	stmdb	sp!, {r4, r5, r6, r7, r8, lr}
		if( pxMutexHolder != NULL )
 8001154:	4604      	mov	r4, r0
 8001156:	2800      	cmp	r0, #0
 8001158:	d036      	beq.n	80011c8 <xTaskPriorityInherit+0x78>
			if( pxMutexHolderTCB->uxPriority < pxCurrentTCB->uxPriority )
 800115a:	4a23      	ldr	r2, [pc, #140]	; (80011e8 <xTaskPriorityInherit+0x98>)
 800115c:	6ac3      	ldr	r3, [r0, #44]	; 0x2c
 800115e:	68d1      	ldr	r1, [r2, #12]
 8001160:	4615      	mov	r5, r2
 8001162:	6ac9      	ldr	r1, [r1, #44]	; 0x2c
 8001164:	428b      	cmp	r3, r1
 8001166:	d237      	bcs.n	80011d8 <xTaskPriorityInherit+0x88>
				if( listIS_CONTAINED_WITHIN( &( pxReadyTasksLists[ pxMutexHolderTCB->uxPriority ] ), &( pxMutexHolderTCB->xStateListItem ) ) != pdFALSE )
 8001168:	2714      	movs	r7, #20
				if( ( listGET_LIST_ITEM_VALUE( &( pxMutexHolderTCB->xEventListItem ) ) & taskEVENT_LIST_ITEM_VALUE_IN_USE ) == 0UL )
 800116a:	6982      	ldr	r2, [r0, #24]
				if( listIS_CONTAINED_WITHIN( &( pxReadyTasksLists[ pxMutexHolderTCB->uxPriority ] ), &( pxMutexHolderTCB->xStateListItem ) ) != pdFALSE )
 800116c:	4e1f      	ldr	r6, [pc, #124]	; (80011ec <xTaskPriorityInherit+0x9c>)
				if( ( listGET_LIST_ITEM_VALUE( &( pxMutexHolderTCB->xEventListItem ) ) & taskEVENT_LIST_ITEM_VALUE_IN_USE ) == 0UL )
 800116e:	2a00      	cmp	r2, #0
					listSET_LIST_ITEM_VALUE( &( pxMutexHolderTCB->xEventListItem ), ( TickType_t ) configMAX_PRIORITIES - ( TickType_t ) pxCurrentTCB->uxPriority ); /*lint !e961 MISRA exception as the casts are only redundant for some ports. */
 8001170:	bfa8      	it	ge
 8001172:	68ea      	ldrge	r2, [r5, #12]
				if( listIS_CONTAINED_WITHIN( &( pxReadyTasksLists[ pxMutexHolderTCB->uxPriority ] ), &( pxMutexHolderTCB->xStateListItem ) ) != pdFALSE )
 8001174:	fb07 6303 	mla	r3, r7, r3, r6
					listSET_LIST_ITEM_VALUE( &( pxMutexHolderTCB->xEventListItem ), ( TickType_t ) configMAX_PRIORITIES - ( TickType_t ) pxCurrentTCB->uxPriority ); /*lint !e961 MISRA exception as the casts are only redundant for some ports. */
 8001178:	bfa2      	ittt	ge
 800117a:	6ad2      	ldrge	r2, [r2, #44]	; 0x2c
 800117c:	f1c2 0205 	rsbge	r2, r2, #5
 8001180:	6182      	strge	r2, [r0, #24]
				if( listIS_CONTAINED_WITHIN( &( pxReadyTasksLists[ pxMutexHolderTCB->uxPriority ] ), &( pxMutexHolderTCB->xStateListItem ) ) != pdFALSE )
 8001182:	6942      	ldr	r2, [r0, #20]
 8001184:	429a      	cmp	r2, r3
 8001186:	d121      	bne.n	80011cc <xTaskPriorityInherit+0x7c>
					if( uxListRemove( &( pxMutexHolderTCB->xStateListItem ) ) == ( UBaseType_t ) 0 )
 8001188:	f100 0804 	add.w	r8, r0, #4
 800118c:	4640      	mov	r0, r8
 800118e:	f7ff f8b4 	bl	80002fa <uxListRemove>
 8001192:	b950      	cbnz	r0, 80011aa <xTaskPriorityInherit+0x5a>
						taskRESET_READY_PRIORITY( pxMutexHolderTCB->uxPriority );
 8001194:	6ae1      	ldr	r1, [r4, #44]	; 0x2c
 8001196:	fb07 5701 	mla	r7, r7, r1, r5
 800119a:	6cbb      	ldr	r3, [r7, #72]	; 0x48
 800119c:	b92b      	cbnz	r3, 80011aa <xTaskPriorityInherit+0x5a>
 800119e:	2201      	movs	r2, #1
 80011a0:	692b      	ldr	r3, [r5, #16]
 80011a2:	408a      	lsls	r2, r1
 80011a4:	ea23 0302 	bic.w	r3, r3, r2
 80011a8:	612b      	str	r3, [r5, #16]
					pxMutexHolderTCB->uxPriority = pxCurrentTCB->uxPriority;
 80011aa:	68eb      	ldr	r3, [r5, #12]
					prvAddTaskToReadyList( pxMutexHolderTCB );
 80011ac:	2014      	movs	r0, #20
					pxMutexHolderTCB->uxPriority = pxCurrentTCB->uxPriority;
 80011ae:	6adb      	ldr	r3, [r3, #44]	; 0x2c
					prvAddTaskToReadyList( pxMutexHolderTCB );
 80011b0:	6929      	ldr	r1, [r5, #16]
					pxMutexHolderTCB->uxPriority = pxCurrentTCB->uxPriority;
 80011b2:	62e3      	str	r3, [r4, #44]	; 0x2c
					prvAddTaskToReadyList( pxMutexHolderTCB );
 80011b4:	2401      	movs	r4, #1
 80011b6:	fa04 f203 	lsl.w	r2, r4, r3
 80011ba:	430a      	orrs	r2, r1
 80011bc:	fb00 6003 	mla	r0, r0, r3, r6
 80011c0:	4641      	mov	r1, r8
 80011c2:	612a      	str	r2, [r5, #16]
 80011c4:	f7ff f876 	bl	80002b4 <vListInsertEnd>
	BaseType_t xReturn = pdFALSE;
 80011c8:	4620      	mov	r0, r4
		return xReturn;
 80011ca:	e003      	b.n	80011d4 <xTaskPriorityInherit+0x84>
					pxMutexHolderTCB->uxPriority = pxCurrentTCB->uxPriority;
 80011cc:	68eb      	ldr	r3, [r5, #12]
 80011ce:	6adb      	ldr	r3, [r3, #44]	; 0x2c
 80011d0:	62c3      	str	r3, [r0, #44]	; 0x2c
				xReturn = pdTRUE;
 80011d2:	2001      	movs	r0, #1
	}
 80011d4:	e8bd 81f0 	ldmia.w	sp!, {r4, r5, r6, r7, r8, pc}
				if( pxMutexHolderTCB->uxBasePriority < pxCurrentTCB->uxPriority )
 80011d8:	68d3      	ldr	r3, [r2, #12]
 80011da:	6c40      	ldr	r0, [r0, #68]	; 0x44
 80011dc:	6adc      	ldr	r4, [r3, #44]	; 0x2c
 80011de:	42a0      	cmp	r0, r4
 80011e0:	bf2c      	ite	cs
 80011e2:	2000      	movcs	r0, #0
 80011e4:	2001      	movcc	r0, #1
 80011e6:	e7f5      	b.n	80011d4 <xTaskPriorityInherit+0x84>
 80011e8:	200044c4 	.word	0x200044c4
 80011ec:	2000450c 	.word	0x2000450c

080011f0 <xTaskPriorityDisinherit>:
	{
 80011f0:	b570      	push	{r4, r5, r6, lr}
		if( pxMutexHolder != NULL )
 80011f2:	4604      	mov	r4, r0
 80011f4:	b908      	cbnz	r0, 80011fa <xTaskPriorityDisinherit+0xa>
	BaseType_t xReturn = pdFALSE;
 80011f6:	2000      	movs	r0, #0
	}
 80011f8:	bd70      	pop	{r4, r5, r6, pc}
			( pxTCB->uxMutexesHeld )--;
 80011fa:	6c83      	ldr	r3, [r0, #72]	; 0x48
			if( pxTCB->uxPriority != pxTCB->uxBasePriority )
 80011fc:	6ac1      	ldr	r1, [r0, #44]	; 0x2c
 80011fe:	6c42      	ldr	r2, [r0, #68]	; 0x44
			( pxTCB->uxMutexesHeld )--;
 8001200:	3b01      	subs	r3, #1
			if( pxTCB->uxPriority != pxTCB->uxBasePriority )
 8001202:	4291      	cmp	r1, r2
			( pxTCB->uxMutexesHeld )--;
 8001204:	6483      	str	r3, [r0, #72]	; 0x48
			if( pxTCB->uxPriority != pxTCB->uxBasePriority )
 8001206:	d0f6      	beq.n	80011f6 <xTaskPriorityDisinherit+0x6>
				if( pxTCB->uxMutexesHeld == ( UBaseType_t ) 0 )
 8001208:	2b00      	cmp	r3, #0
 800120a:	d1f4      	bne.n	80011f6 <xTaskPriorityDisinherit+0x6>
					if( uxListRemove( &( pxTCB->xStateListItem ) ) == ( UBaseType_t ) 0 )
 800120c:	1d05      	adds	r5, r0, #4
 800120e:	4628      	mov	r0, r5
 8001210:	f7ff f873 	bl	80002fa <uxListRemove>
 8001214:	4b10      	ldr	r3, [pc, #64]	; (8001258 <xTaskPriorityDisinherit+0x68>)
 8001216:	b958      	cbnz	r0, 8001230 <xTaskPriorityDisinherit+0x40>
						taskRESET_READY_PRIORITY( pxTCB->uxPriority );
 8001218:	2114      	movs	r1, #20
 800121a:	6ae6      	ldr	r6, [r4, #44]	; 0x2c
 800121c:	fb01 3106 	mla	r1, r1, r6, r3
 8001220:	6c8a      	ldr	r2, [r1, #72]	; 0x48
 8001222:	b92a      	cbnz	r2, 8001230 <xTaskPriorityDisinherit+0x40>
 8001224:	2001      	movs	r0, #1
 8001226:	691a      	ldr	r2, [r3, #16]
 8001228:	40b0      	lsls	r0, r6
 800122a:	ea22 0200 	bic.w	r2, r2, r0
 800122e:	611a      	str	r2, [r3, #16]
					pxTCB->uxPriority = pxTCB->uxBasePriority;
 8001230:	6c62      	ldr	r2, [r4, #68]	; 0x44
					listSET_LIST_ITEM_VALUE( &( pxTCB->xEventListItem ), ( TickType_t ) configMAX_PRIORITIES - ( TickType_t ) pxTCB->uxPriority ); /*lint !e961 MISRA exception as the casts are only redundant for some ports. */
 8001232:	f1c2 0105 	rsb	r1, r2, #5
 8001236:	61a1      	str	r1, [r4, #24]
					pxTCB->uxPriority = pxTCB->uxBasePriority;
 8001238:	62e2      	str	r2, [r4, #44]	; 0x2c
					prvAddTaskToReadyList( pxTCB );
 800123a:	2401      	movs	r4, #1
 800123c:	6919      	ldr	r1, [r3, #16]
 800123e:	fa04 f002 	lsl.w	r0, r4, r2
 8001242:	4308      	orrs	r0, r1
 8001244:	6118      	str	r0, [r3, #16]
 8001246:	2014      	movs	r0, #20
 8001248:	4b04      	ldr	r3, [pc, #16]	; (800125c <xTaskPriorityDisinherit+0x6c>)
 800124a:	4629      	mov	r1, r5
 800124c:	fb00 3002 	mla	r0, r0, r2, r3
 8001250:	f7ff f830 	bl	80002b4 <vListInsertEnd>
					xReturn = pdTRUE;
 8001254:	4620      	mov	r0, r4
		return xReturn;
 8001256:	e7cf      	b.n	80011f8 <xTaskPriorityDisinherit+0x8>
 8001258:	200044c4 	.word	0x200044c4
 800125c:	2000450c 	.word	0x2000450c

08001260 <vTaskPriorityDisinheritAfterTimeout>:
	{
 8001260:	e92d 41f0 	stmdb	sp!, {r4, r5, r6, r7, r8, lr}
		if( pxMutexHolder != NULL )
 8001264:	4604      	mov	r4, r0
 8001266:	2800      	cmp	r0, #0
 8001268:	d037      	beq.n	80012da <vTaskPriorityDisinheritAfterTimeout+0x7a>
			if( pxTCB->uxBasePriority < uxHighestPriorityWaitingTask )
 800126a:	6c43      	ldr	r3, [r0, #68]	; 0x44
 800126c:	4299      	cmp	r1, r3
 800126e:	bf38      	it	cc
 8001270:	4619      	movcc	r1, r3
			if( pxTCB->uxPriority != uxPriorityToUse )
 8001272:	6ac3      	ldr	r3, [r0, #44]	; 0x2c
 8001274:	428b      	cmp	r3, r1
 8001276:	d030      	beq.n	80012da <vTaskPriorityDisinheritAfterTimeout+0x7a>
				if( pxTCB->uxMutexesHeld == uxOnlyOneMutexHeld )
 8001278:	6c82      	ldr	r2, [r0, #72]	; 0x48
 800127a:	2a01      	cmp	r2, #1
 800127c:	d12d      	bne.n	80012da <vTaskPriorityDisinheritAfterTimeout+0x7a>
					if( listIS_CONTAINED_WITHIN( &( pxReadyTasksLists[ uxPriorityUsedOnEntry ] ), &( pxTCB->xStateListItem ) ) != pdFALSE )
 800127e:	2714      	movs	r7, #20
 8001280:	4d17      	ldr	r5, [pc, #92]	; (80012e0 <vTaskPriorityDisinheritAfterTimeout+0x80>)
					if( ( listGET_LIST_ITEM_VALUE( &( pxTCB->xEventListItem ) ) & taskEVENT_LIST_ITEM_VALUE_IN_USE ) == 0UL )
 8001282:	6982      	ldr	r2, [r0, #24]
					if( listIS_CONTAINED_WITHIN( &( pxReadyTasksLists[ uxPriorityUsedOnEntry ] ), &( pxTCB->xStateListItem ) ) != pdFALSE )
 8001284:	f105 0648 	add.w	r6, r5, #72	; 0x48
 8001288:	fb07 6303 	mla	r3, r7, r3, r6
					if( ( listGET_LIST_ITEM_VALUE( &( pxTCB->xEventListItem ) ) & taskEVENT_LIST_ITEM_VALUE_IN_USE ) == 0UL )
 800128c:	2a00      	cmp	r2, #0
					if( listIS_CONTAINED_WITHIN( &( pxReadyTasksLists[ uxPriorityUsedOnEntry ] ), &( pxTCB->xStateListItem ) ) != pdFALSE )
 800128e:	6942      	ldr	r2, [r0, #20]
					pxTCB->uxPriority = uxPriorityToUse;
 8001290:	62c1      	str	r1, [r0, #44]	; 0x2c
						listSET_LIST_ITEM_VALUE( &( pxTCB->xEventListItem ), ( TickType_t ) configMAX_PRIORITIES - ( TickType_t ) uxPriorityToUse ); /*lint !e961 MISRA exception as the casts are only redundant for some ports. */
 8001292:	bfa4      	itt	ge
 8001294:	f1c1 0105 	rsbge	r1, r1, #5
 8001298:	6181      	strge	r1, [r0, #24]
					if( listIS_CONTAINED_WITHIN( &( pxReadyTasksLists[ uxPriorityUsedOnEntry ] ), &( pxTCB->xStateListItem ) ) != pdFALSE )
 800129a:	429a      	cmp	r2, r3
 800129c:	d11d      	bne.n	80012da <vTaskPriorityDisinheritAfterTimeout+0x7a>
						if( uxListRemove( &( pxTCB->xStateListItem ) ) == ( UBaseType_t ) 0 )
 800129e:	f100 0804 	add.w	r8, r0, #4
 80012a2:	4640      	mov	r0, r8
 80012a4:	f7ff f829 	bl	80002fa <uxListRemove>
 80012a8:	6ae2      	ldr	r2, [r4, #44]	; 0x2c
 80012aa:	b948      	cbnz	r0, 80012c0 <vTaskPriorityDisinheritAfterTimeout+0x60>
							taskRESET_READY_PRIORITY( pxTCB->uxPriority );
 80012ac:	fb07 5702 	mla	r7, r7, r2, r5
 80012b0:	6cbb      	ldr	r3, [r7, #72]	; 0x48
 80012b2:	b92b      	cbnz	r3, 80012c0 <vTaskPriorityDisinheritAfterTimeout+0x60>
 80012b4:	2101      	movs	r1, #1
 80012b6:	692b      	ldr	r3, [r5, #16]
 80012b8:	4091      	lsls	r1, r2
 80012ba:	ea23 0301 	bic.w	r3, r3, r1
 80012be:	612b      	str	r3, [r5, #16]
						prvAddTaskToReadyList( pxTCB );
 80012c0:	2301      	movs	r3, #1
 80012c2:	2014      	movs	r0, #20
 80012c4:	6929      	ldr	r1, [r5, #16]
 80012c6:	4093      	lsls	r3, r2
 80012c8:	430b      	orrs	r3, r1
 80012ca:	fb00 6002 	mla	r0, r0, r2, r6
 80012ce:	4641      	mov	r1, r8
 80012d0:	612b      	str	r3, [r5, #16]
	}
 80012d2:	e8bd 41f0 	ldmia.w	sp!, {r4, r5, r6, r7, r8, lr}
						prvAddTaskToReadyList( pxTCB );
 80012d6:	f7fe bfed 	b.w	80002b4 <vListInsertEnd>
	}
 80012da:	e8bd 81f0 	ldmia.w	sp!, {r4, r5, r6, r7, r8, pc}
 80012de:	bf00      	nop
 80012e0:	200044c4 	.word	0x200044c4

080012e4 <pvTaskIncrementMutexHeldCount>:
		if( pxCurrentTCB != NULL )
 80012e4:	4b04      	ldr	r3, [pc, #16]	; (80012f8 <pvTaskIncrementMutexHeldCount+0x14>)
 80012e6:	68da      	ldr	r2, [r3, #12]
 80012e8:	b11a      	cbz	r2, 80012f2 <pvTaskIncrementMutexHeldCount+0xe>
			( pxCurrentTCB->uxMutexesHeld )++;
 80012ea:	68d9      	ldr	r1, [r3, #12]
 80012ec:	6c8a      	ldr	r2, [r1, #72]	; 0x48
 80012ee:	3201      	adds	r2, #1
 80012f0:	648a      	str	r2, [r1, #72]	; 0x48
		return pxCurrentTCB;
 80012f2:	68d8      	ldr	r0, [r3, #12]
	}
 80012f4:	4770      	bx	lr
 80012f6:	bf00      	nop
 80012f8:	200044c4 	.word	0x200044c4

080012fc <NVIC_PriorityGroupConfig>:
{
  /* Check the parameters */
  assert_param(IS_NVIC_PRIORITY_GROUP(NVIC_PriorityGroup));
  
  /* Set the PRIGROUP[10:8] bits according to NVIC_PriorityGroup value */
  SCB->AIRCR = AIRCR_VECTKEY_MASK | NVIC_PriorityGroup;
 80012fc:	4b03      	ldr	r3, [pc, #12]	; (800130c <NVIC_PriorityGroupConfig+0x10>)
 80012fe:	f040 60bf 	orr.w	r0, r0, #100139008	; 0x5f80000
 8001302:	f440 3000 	orr.w	r0, r0, #131072	; 0x20000
 8001306:	60d8      	str	r0, [r3, #12]
}
 8001308:	4770      	bx	lr
 800130a:	bf00      	nop
 800130c:	e000ed00 	.word	0xe000ed00

08001310 <NVIC_Init>:
  * @param  NVIC_InitStruct: pointer to a NVIC_InitTypeDef structure that contains
  *         the configuration information for the specified NVIC peripheral.
  * @retval None
  */
void NVIC_Init(NVIC_InitTypeDef* NVIC_InitStruct)
{
 8001310:	b570      	push	{r4, r5, r6, lr}
 8001312:	2501      	movs	r5, #1
 8001314:	7801      	ldrb	r1, [r0, #0]
 8001316:	f001 031f 	and.w	r3, r1, #31
 800131a:	409d      	lsls	r5, r3
  /* Check the parameters */
  assert_param(IS_FUNCTIONAL_STATE(NVIC_InitStruct->NVIC_IRQChannelCmd));
  assert_param(IS_NVIC_PREEMPTION_PRIORITY(NVIC_InitStruct->NVIC_IRQChannelPreemptionPriority));  
  assert_param(IS_NVIC_SUB_PRIORITY(NVIC_InitStruct->NVIC_IRQChannelSubPriority));
    
  if (NVIC_InitStruct->NVIC_IRQChannelCmd != DISABLE)
 800131c:	78c3      	ldrb	r3, [r0, #3]
 800131e:	094c      	lsrs	r4, r1, #5
 8001320:	b1c3      	cbz	r3, 8001354 <NVIC_Init+0x44>
  {
    /* Compute the Corresponding IRQ Priority --------------------------------*/    
    tmppriority = (0x700 - ((SCB->AIRCR) & (uint32_t)0x700))>> 0x08;
 8001322:	4b0f      	ldr	r3, [pc, #60]	; (8001360 <NVIC_Init+0x50>)
 8001324:	68da      	ldr	r2, [r3, #12]
    tmppre = (0x4 - tmppriority);
    tmpsub = tmpsub >> tmppriority;

    tmppriority = (uint32_t)NVIC_InitStruct->NVIC_IRQChannelPreemptionPriority << tmppre;
 8001326:	7843      	ldrb	r3, [r0, #1]
    tmppriority = (0x700 - ((SCB->AIRCR) & (uint32_t)0x700))>> 0x08;
 8001328:	43d2      	mvns	r2, r2
 800132a:	f3c2 2202 	ubfx	r2, r2, #8, #3
    tmppre = (0x4 - tmppriority);
 800132e:	f1c2 0604 	rsb	r6, r2, #4
    tmppriority = (uint32_t)NVIC_InitStruct->NVIC_IRQChannelPreemptionPriority << tmppre;
 8001332:	fa03 f606 	lsl.w	r6, r3, r6
    tmppriority |=  NVIC_InitStruct->NVIC_IRQChannelSubPriority & tmpsub;
 8001336:	7883      	ldrb	r3, [r0, #2]
    tmpsub = tmpsub >> tmppriority;
 8001338:	200f      	movs	r0, #15
 800133a:	fa20 f202 	lsr.w	r2, r0, r2
    tmppriority |=  NVIC_InitStruct->NVIC_IRQChannelSubPriority & tmpsub;
 800133e:	4013      	ands	r3, r2
 8001340:	4333      	orrs	r3, r6
    tmppriority = tmppriority << 0x04;
        
    NVIC->IP[NVIC_InitStruct->NVIC_IRQChannel] = tmppriority;
 8001342:	4a08      	ldr	r2, [pc, #32]	; (8001364 <NVIC_Init+0x54>)
    tmppriority = tmppriority << 0x04;
 8001344:	011b      	lsls	r3, r3, #4
    NVIC->IP[NVIC_InitStruct->NVIC_IRQChannel] = tmppriority;
 8001346:	b2db      	uxtb	r3, r3
 8001348:	4411      	add	r1, r2
 800134a:	f881 3300 	strb.w	r3, [r1, #768]	; 0x300
    
    /* Enable the Selected IRQ Channels --------------------------------------*/
    NVIC->ISER[NVIC_InitStruct->NVIC_IRQChannel >> 0x05] =
 800134e:	f842 5024 	str.w	r5, [r2, r4, lsl #2]
  {
    /* Disable the Selected IRQ Channels -------------------------------------*/
    NVIC->ICER[NVIC_InitStruct->NVIC_IRQChannel >> 0x05] =
      (uint32_t)0x01 << (NVIC_InitStruct->NVIC_IRQChannel & (uint8_t)0x1F);
  }
}
 8001352:	bd70      	pop	{r4, r5, r6, pc}
    NVIC->ICER[NVIC_InitStruct->NVIC_IRQChannel >> 0x05] =
 8001354:	4b03      	ldr	r3, [pc, #12]	; (8001364 <NVIC_Init+0x54>)
 8001356:	3420      	adds	r4, #32
 8001358:	f843 5024 	str.w	r5, [r3, r4, lsl #2]
}
 800135c:	e7f9      	b.n	8001352 <NVIC_Init+0x42>
 800135e:	bf00      	nop
 8001360:	e000ed00 	.word	0xe000ed00
 8001364:	e000e100 	.word	0xe000e100

08001368 <EXTI_Init>:
  assert_param(IS_EXTI_LINE(EXTI_InitStruct->EXTI_Line));  
  assert_param(IS_FUNCTIONAL_STATE(EXTI_InitStruct->EXTI_LineCmd));

  tmp = (uint32_t)EXTI_BASE;
     
  if (EXTI_InitStruct->EXTI_LineCmd != DISABLE)
 8001368:	7902      	ldrb	r2, [r0, #4]
{
 800136a:	b530      	push	{r4, r5, lr}
  if (EXTI_InitStruct->EXTI_LineCmd != DISABLE)
 800136c:	7983      	ldrb	r3, [r0, #6]
 800136e:	6805      	ldr	r5, [r0, #0]
 8001370:	f102 4280 	add.w	r2, r2, #1073741824	; 0x40000000
 8001374:	43e9      	mvns	r1, r5
 8001376:	f502 3282 	add.w	r2, r2, #66560	; 0x10400
 800137a:	b323      	cbz	r3, 80013c6 <EXTI_Init+0x5e>
  {
    /* Clear EXTI line configuration */
    EXTI->IMR &= ~EXTI_InitStruct->EXTI_Line;
 800137c:	4b14      	ldr	r3, [pc, #80]	; (80013d0 <EXTI_Init+0x68>)
 800137e:	681c      	ldr	r4, [r3, #0]
 8001380:	400c      	ands	r4, r1
 8001382:	601c      	str	r4, [r3, #0]
    EXTI->EMR &= ~EXTI_InitStruct->EXTI_Line;
 8001384:	685c      	ldr	r4, [r3, #4]
 8001386:	4021      	ands	r1, r4
 8001388:	6059      	str	r1, [r3, #4]
    
    tmp += EXTI_InitStruct->EXTI_Mode;

    *(__IO uint32_t *) tmp |= EXTI_InitStruct->EXTI_Line;
 800138a:	6811      	ldr	r1, [r2, #0]
 800138c:	4329      	orrs	r1, r5
 800138e:	6011      	str	r1, [r2, #0]

    /* Clear Rising Falling edge configuration */
    EXTI->RTSR &= ~EXTI_InitStruct->EXTI_Line;
 8001390:	6899      	ldr	r1, [r3, #8]
 8001392:	6802      	ldr	r2, [r0, #0]
 8001394:	ea21 0102 	bic.w	r1, r1, r2
 8001398:	6099      	str	r1, [r3, #8]
    EXTI->FTSR &= ~EXTI_InitStruct->EXTI_Line;
 800139a:	68d9      	ldr	r1, [r3, #12]
 800139c:	ea21 0102 	bic.w	r1, r1, r2
 80013a0:	60d9      	str	r1, [r3, #12]
    
    /* Select the trigger for the selected external interrupts */
    if (EXTI_InitStruct->EXTI_Trigger == EXTI_Trigger_Rising_Falling)
 80013a2:	7941      	ldrb	r1, [r0, #5]
 80013a4:	2910      	cmp	r1, #16
 80013a6:	d106      	bne.n	80013b6 <EXTI_Init+0x4e>
    {
      /* Rising Falling edge */
      EXTI->RTSR |= EXTI_InitStruct->EXTI_Line;
 80013a8:	6899      	ldr	r1, [r3, #8]
 80013aa:	4311      	orrs	r1, r2
 80013ac:	6099      	str	r1, [r3, #8]
      EXTI->FTSR |= EXTI_InitStruct->EXTI_Line;
 80013ae:	68d9      	ldr	r1, [r3, #12]
 80013b0:	430a      	orrs	r2, r1
 80013b2:	60da      	str	r2, [r3, #12]
    tmp += EXTI_InitStruct->EXTI_Mode;

    /* Disable the selected external lines */
    *(__IO uint32_t *) tmp &= ~EXTI_InitStruct->EXTI_Line;
  }
}
 80013b4:	bd30      	pop	{r4, r5, pc}
      tmp += EXTI_InitStruct->EXTI_Trigger;
 80013b6:	f101 4380 	add.w	r3, r1, #1073741824	; 0x40000000
 80013ba:	f503 3382 	add.w	r3, r3, #66560	; 0x10400
      *(__IO uint32_t *) tmp |= EXTI_InitStruct->EXTI_Line;
 80013be:	6819      	ldr	r1, [r3, #0]
 80013c0:	430a      	orrs	r2, r1
 80013c2:	601a      	str	r2, [r3, #0]
 80013c4:	e7f6      	b.n	80013b4 <EXTI_Init+0x4c>
    *(__IO uint32_t *) tmp &= ~EXTI_InitStruct->EXTI_Line;
 80013c6:	6813      	ldr	r3, [r2, #0]
 80013c8:	400b      	ands	r3, r1
 80013ca:	6013      	str	r3, [r2, #0]
}
 80013cc:	e7f2      	b.n	80013b4 <EXTI_Init+0x4c>
 80013ce:	bf00      	nop
 80013d0:	40010400 	.word	0x40010400

080013d4 <EXTI_ClearITPendingBit>:
 80013d4:	4b01      	ldr	r3, [pc, #4]	; (80013dc <EXTI_ClearITPendingBit+0x8>)
 80013d6:	6158      	str	r0, [r3, #20]
 80013d8:	4770      	bx	lr
 80013da:	bf00      	nop
 80013dc:	40010400 	.word	0x40010400

080013e0 <FLASH_SetLatency>:
  
  /* Check the parameters */
  assert_param(IS_FLASH_LATENCY(FLASH_Latency));
  
  /* Read the ACR register */
  tmpreg = FLASH->ACR;  
 80013e0:	4a03      	ldr	r2, [pc, #12]	; (80013f0 <FLASH_SetLatency+0x10>)
 80013e2:	6813      	ldr	r3, [r2, #0]
  
  /* Sets the Latency value */
  tmpreg &= ACR_LATENCY_Mask;
 80013e4:	f003 0338 	and.w	r3, r3, #56	; 0x38
  tmpreg |= FLASH_Latency;
 80013e8:	4303      	orrs	r3, r0
  
  /* Write the ACR register */
  FLASH->ACR = tmpreg;
 80013ea:	6013      	str	r3, [r2, #0]
}
 80013ec:	4770      	bx	lr
 80013ee:	bf00      	nop
 80013f0:	40022000 	.word	0x40022000

080013f4 <FLASH_PrefetchBufferCmd>:
{
  /* Check the parameters */
  assert_param(IS_FLASH_PREFETCHBUFFER_STATE(FLASH_PrefetchBuffer));
  
  /* Enable or disable the Prefetch Buffer */
  FLASH->ACR &= ACR_PRFTBE_Mask;
 80013f4:	4b04      	ldr	r3, [pc, #16]	; (8001408 <FLASH_PrefetchBufferCmd+0x14>)
 80013f6:	6819      	ldr	r1, [r3, #0]
 80013f8:	f021 0110 	bic.w	r1, r1, #16
 80013fc:	6019      	str	r1, [r3, #0]
  FLASH->ACR |= FLASH_PrefetchBuffer;
 80013fe:	681a      	ldr	r2, [r3, #0]
 8001400:	4302      	orrs	r2, r0
 8001402:	601a      	str	r2, [r3, #0]
}
 8001404:	4770      	bx	lr
 8001406:	bf00      	nop
 8001408:	40022000 	.word	0x40022000

0800140c <GPIO_Init>:
  * @param  GPIO_InitStruct: pointer to a GPIO_InitTypeDef structure that
  *         contains the configuration information for the specified GPIO peripheral.
  * @retval None
  */
void GPIO_Init(GPIO_TypeDef* GPIOx, GPIO_InitTypeDef* GPIO_InitStruct)
{
 800140c:	e92d 41f0 	stmdb	sp!, {r4, r5, r6, r7, r8, lr}
  assert_param(IS_GPIO_ALL_PERIPH(GPIOx));
  assert_param(IS_GPIO_MODE(GPIO_InitStruct->GPIO_Mode));
  assert_param(IS_GPIO_PIN(GPIO_InitStruct->GPIO_Pin));  
  
/*---------------------------- GPIO Mode Configuration -----------------------*/
  currentmode = ((uint32_t)GPIO_InitStruct->GPIO_Mode) & ((uint32_t)0x0F);
 8001410:	78cb      	ldrb	r3, [r1, #3]
    /* Output mode */
    currentmode |= (uint32_t)GPIO_InitStruct->GPIO_Speed;
  }
/*---------------------------- GPIO CRL Configuration ------------------------*/
  /* Configure the eight low port pins */
  if (((uint32_t)GPIO_InitStruct->GPIO_Pin & ((uint32_t)0x00FF)) != 0x00)
 8001412:	880e      	ldrh	r6, [r1, #0]
  if ((((uint32_t)GPIO_InitStruct->GPIO_Mode) & ((uint32_t)0x10)) != 0x00)
 8001414:	06da      	lsls	r2, r3, #27
 8001416:	bf48      	it	mi
 8001418:	788a      	ldrbmi	r2, [r1, #2]
 800141a:	f003 050f 	and.w	r5, r3, #15
    currentmode |= (uint32_t)GPIO_InitStruct->GPIO_Speed;
 800141e:	bf48      	it	mi
 8001420:	4315      	orrmi	r5, r2
  if (((uint32_t)GPIO_InitStruct->GPIO_Pin & ((uint32_t)0x00FF)) != 0x00)
 8001422:	780a      	ldrb	r2, [r1, #0]
 8001424:	b1d2      	cbz	r2, 800145c <GPIO_Init+0x50>
  {
    tmpreg = GPIOx->CRL;
    for (pinpos = 0x00; pinpos < 0x08; pinpos++)
 8001426:	2100      	movs	r1, #0
    {
      pos = ((uint32_t)0x01) << pinpos;
 8001428:	f04f 0c01 	mov.w	ip, #1
      currentpin = (GPIO_InitStruct->GPIO_Pin) & pos;
      if (currentpin == pos)
      {
        pos = pinpos << 2;
        /* Clear the corresponding low control register bits */
        pinmask = ((uint32_t)0x0F) << pos;
 800142c:	f04f 0e0f 	mov.w	lr, #15
    tmpreg = GPIOx->CRL;
 8001430:	6802      	ldr	r2, [r0, #0]
      pos = ((uint32_t)0x01) << pinpos;
 8001432:	fa0c f701 	lsl.w	r7, ip, r1
      if (currentpin == pos)
 8001436:	ea37 0406 	bics.w	r4, r7, r6
 800143a:	d10b      	bne.n	8001454 <GPIO_Init+0x48>
        pos = pinpos << 2;
 800143c:	008c      	lsls	r4, r1, #2
        pinmask = ((uint32_t)0x0F) << pos;
 800143e:	fa0e f804 	lsl.w	r8, lr, r4
        tmpreg &= ~pinmask;
 8001442:	ea22 0208 	bic.w	r2, r2, r8
        /* Write the mode configuration in the corresponding bits */
        tmpreg |= (currentmode << pos);
 8001446:	fa05 f404 	lsl.w	r4, r5, r4
        /* Reset the corresponding ODR bit */
        if (GPIO_InitStruct->GPIO_Mode == GPIO_Mode_IPD)
 800144a:	2b28      	cmp	r3, #40	; 0x28
        tmpreg |= (currentmode << pos);
 800144c:	ea42 0204 	orr.w	r2, r2, r4
        if (GPIO_InitStruct->GPIO_Mode == GPIO_Mode_IPD)
 8001450:	d124      	bne.n	800149c <GPIO_Init+0x90>
        {
          GPIOx->BRR = (((uint32_t)0x01) << pinpos);
 8001452:	6147      	str	r7, [r0, #20]
    for (pinpos = 0x00; pinpos < 0x08; pinpos++)
 8001454:	3101      	adds	r1, #1
 8001456:	2908      	cmp	r1, #8
 8001458:	d1eb      	bne.n	8001432 <GPIO_Init+0x26>
            GPIOx->BSRR = (((uint32_t)0x01) << pinpos);
          }
        }
      }
    }
    GPIOx->CRL = tmpreg;
 800145a:	6002      	str	r2, [r0, #0]
  }
/*---------------------------- GPIO CRH Configuration ------------------------*/
  /* Configure the eight high port pins */
  if (GPIO_InitStruct->GPIO_Pin > 0x00FF)
 800145c:	2eff      	cmp	r6, #255	; 0xff
 800145e:	d91b      	bls.n	8001498 <GPIO_Init+0x8c>
  {
    tmpreg = GPIOx->CRH;
 8001460:	2408      	movs	r4, #8
    for (pinpos = 0x00; pinpos < 0x08; pinpos++)
    {
      pos = (((uint32_t)0x01) << (pinpos + 0x08));
 8001462:	f04f 0c01 	mov.w	ip, #1
      currentpin = ((GPIO_InitStruct->GPIO_Pin) & pos);
      if (currentpin == pos)
      {
        pos = pinpos << 2;
        /* Clear the corresponding high control register bits */
        pinmask = ((uint32_t)0x0F) << pos;
 8001466:	f04f 0e0f 	mov.w	lr, #15
    tmpreg = GPIOx->CRH;
 800146a:	6841      	ldr	r1, [r0, #4]
      pos = (((uint32_t)0x01) << (pinpos + 0x08));
 800146c:	fa0c f704 	lsl.w	r7, ip, r4
      if (currentpin == pos)
 8001470:	ea37 0206 	bics.w	r2, r7, r6
 8001474:	d10c      	bne.n	8001490 <GPIO_Init+0x84>
        pos = pinpos << 2;
 8001476:	00a2      	lsls	r2, r4, #2
 8001478:	3a20      	subs	r2, #32
        pinmask = ((uint32_t)0x0F) << pos;
 800147a:	fa0e f802 	lsl.w	r8, lr, r2
        tmpreg &= ~pinmask;
 800147e:	ea21 0108 	bic.w	r1, r1, r8
        /* Write the mode configuration in the corresponding bits */
        tmpreg |= (currentmode << pos);
 8001482:	fa05 f202 	lsl.w	r2, r5, r2
        /* Reset the corresponding ODR bit */
        if (GPIO_InitStruct->GPIO_Mode == GPIO_Mode_IPD)
 8001486:	2b28      	cmp	r3, #40	; 0x28
        tmpreg |= (currentmode << pos);
 8001488:	ea41 0102 	orr.w	r1, r1, r2
        if (GPIO_InitStruct->GPIO_Mode == GPIO_Mode_IPD)
 800148c:	d10a      	bne.n	80014a4 <GPIO_Init+0x98>
        {
          GPIOx->BRR = (((uint32_t)0x01) << (pinpos + 0x08));
 800148e:	6147      	str	r7, [r0, #20]
    for (pinpos = 0x00; pinpos < 0x08; pinpos++)
 8001490:	3401      	adds	r4, #1
 8001492:	2c10      	cmp	r4, #16
 8001494:	d1ea      	bne.n	800146c <GPIO_Init+0x60>
        {
          GPIOx->BSRR = (((uint32_t)0x01) << (pinpos + 0x08));
        }
      }
    }
    GPIOx->CRH = tmpreg;
 8001496:	6041      	str	r1, [r0, #4]
  }
}
 8001498:	e8bd 81f0 	ldmia.w	sp!, {r4, r5, r6, r7, r8, pc}
          if (GPIO_InitStruct->GPIO_Mode == GPIO_Mode_IPU)
 800149c:	2b48      	cmp	r3, #72	; 0x48
            GPIOx->BSRR = (((uint32_t)0x01) << pinpos);
 800149e:	bf08      	it	eq
 80014a0:	6107      	streq	r7, [r0, #16]
 80014a2:	e7d7      	b.n	8001454 <GPIO_Init+0x48>
        if (GPIO_InitStruct->GPIO_Mode == GPIO_Mode_IPU)
 80014a4:	2b48      	cmp	r3, #72	; 0x48
          GPIOx->BSRR = (((uint32_t)0x01) << (pinpos + 0x08));
 80014a6:	bf08      	it	eq
 80014a8:	6107      	streq	r7, [r0, #16]
 80014aa:	e7f1      	b.n	8001490 <GPIO_Init+0x84>

080014ac <GPIO_WriteBit>:
  /* Check the parameters */
  assert_param(IS_GPIO_ALL_PERIPH(GPIOx));
  assert_param(IS_GET_GPIO_PIN(GPIO_Pin));
  assert_param(IS_GPIO_BIT_ACTION(BitVal)); 
  
  if (BitVal != Bit_RESET)
 80014ac:	b10a      	cbz	r2, 80014b2 <GPIO_WriteBit+0x6>
  {
    GPIOx->BSRR = GPIO_Pin;
 80014ae:	6101      	str	r1, [r0, #16]
 80014b0:	4770      	bx	lr
  }
  else
  {
    GPIOx->BRR = GPIO_Pin;
 80014b2:	6141      	str	r1, [r0, #20]
  }
}
 80014b4:	4770      	bx	lr
	...

080014b8 <GPIO_PinRemapConfig>:

  /* Check the parameters */
  assert_param(IS_GPIO_REMAP(GPIO_Remap));
  assert_param(IS_FUNCTIONAL_STATE(NewState));  
  
  if((GPIO_Remap & 0x80000000) == 0x80000000)
 80014b8:	2800      	cmp	r0, #0
 80014ba:	4a16      	ldr	r2, [pc, #88]	; (8001514 <GPIO_PinRemapConfig+0x5c>)
{
 80014bc:	b530      	push	{r4, r5, lr}
  }

  tmpmask = (GPIO_Remap & DBGAFR_POSITION_MASK) >> 0x10;
  tmp = GPIO_Remap & LSB_MASK;

  if ((GPIO_Remap & (DBGAFR_LOCATION_MASK | DBGAFR_NUMBITS_MASK)) == (DBGAFR_LOCATION_MASK | DBGAFR_NUMBITS_MASK))
 80014be:	f400 1540 	and.w	r5, r0, #3145728	; 0x300000
    tmpreg = AFIO->MAPR2;
 80014c2:	bfb4      	ite	lt
 80014c4:	69d3      	ldrlt	r3, [r2, #28]
    tmpreg = AFIO->MAPR;
 80014c6:	6853      	ldrge	r3, [r2, #4]
  if ((GPIO_Remap & (DBGAFR_LOCATION_MASK | DBGAFR_NUMBITS_MASK)) == (DBGAFR_LOCATION_MASK | DBGAFR_NUMBITS_MASK))
 80014c8:	f5b5 1f40 	cmp.w	r5, #3145728	; 0x300000
  tmp = GPIO_Remap & LSB_MASK;
 80014cc:	b284      	uxth	r4, r0
  if ((GPIO_Remap & (DBGAFR_LOCATION_MASK | DBGAFR_NUMBITS_MASK)) == (DBGAFR_LOCATION_MASK | DBGAFR_NUMBITS_MASK))
 80014ce:	d110      	bne.n	80014f2 <GPIO_PinRemapConfig+0x3a>
  {
    tmpreg &= DBGAFR_SWJCFG_MASK;
    AFIO->MAPR &= DBGAFR_SWJCFG_MASK;
 80014d0:	6855      	ldr	r5, [r2, #4]
    tmpreg &= DBGAFR_SWJCFG_MASK;
 80014d2:	f023 6370 	bic.w	r3, r3, #251658240	; 0xf000000
    AFIO->MAPR &= DBGAFR_SWJCFG_MASK;
 80014d6:	f025 6570 	bic.w	r5, r5, #251658240	; 0xf000000
 80014da:	6055      	str	r5, [r2, #4]
  {
    tmpreg &= ~(tmp << ((GPIO_Remap >> 0x15)*0x10));
    tmpreg |= ~DBGAFR_SWJCFG_MASK;
  }

  if (NewState != DISABLE)
 80014dc:	b119      	cbz	r1, 80014e6 <GPIO_PinRemapConfig+0x2e>
  {
    tmpreg |= (tmp << ((GPIO_Remap >> 0x15)*0x10));
 80014de:	0d42      	lsrs	r2, r0, #21
 80014e0:	0112      	lsls	r2, r2, #4
 80014e2:	4094      	lsls	r4, r2
 80014e4:	4323      	orrs	r3, r4
  }

  if((GPIO_Remap & 0x80000000) == 0x80000000)
 80014e6:	4a0b      	ldr	r2, [pc, #44]	; (8001514 <GPIO_PinRemapConfig+0x5c>)
 80014e8:	2800      	cmp	r0, #0
  {
    AFIO->MAPR2 = tmpreg;
 80014ea:	bfb4      	ite	lt
 80014ec:	61d3      	strlt	r3, [r2, #28]
  }
  else
  {
    AFIO->MAPR = tmpreg;
 80014ee:	6053      	strge	r3, [r2, #4]
  }  
}
 80014f0:	bd30      	pop	{r4, r5, pc}
  else if ((GPIO_Remap & DBGAFR_NUMBITS_MASK) == DBGAFR_NUMBITS_MASK)
 80014f2:	02c2      	lsls	r2, r0, #11
    tmp1 = ((uint32_t)0x03) << tmpmask;
 80014f4:	bf4d      	iteet	mi
 80014f6:	2203      	movmi	r2, #3
    tmpreg &= ~(tmp << ((GPIO_Remap >> 0x15)*0x10));
 80014f8:	0d42      	lsrpl	r2, r0, #21
 80014fa:	0112      	lslpl	r2, r2, #4
  tmpmask = (GPIO_Remap & DBGAFR_POSITION_MASK) >> 0x10;
 80014fc:	f3c0 4503 	ubfxmi	r5, r0, #16, #4
    tmp1 = ((uint32_t)0x03) << tmpmask;
 8001500:	bf4c      	ite	mi
 8001502:	40aa      	lslmi	r2, r5
    tmpreg &= ~(tmp << ((GPIO_Remap >> 0x15)*0x10));
 8001504:	fa04 f202 	lslpl.w	r2, r4, r2
 8001508:	ea23 0302 	bic.w	r3, r3, r2
    tmpreg |= ~DBGAFR_SWJCFG_MASK;
 800150c:	f043 6370 	orr.w	r3, r3, #251658240	; 0xf000000
 8001510:	e7e4      	b.n	80014dc <GPIO_PinRemapConfig+0x24>
 8001512:	bf00      	nop
 8001514:	40010000 	.word	0x40010000

08001518 <GPIO_EXTILineConfig>:
  * @param  GPIO_PinSource: specifies the EXTI line to be configured.
  *   This parameter can be GPIO_PinSourcex where x can be (0..15).
  * @retval None
  */
void GPIO_EXTILineConfig(uint8_t GPIO_PortSource, uint8_t GPIO_PinSource)
{
 8001518:	b510      	push	{r4, lr}
  uint32_t tmp = 0x00;
  /* Check the parameters */
  assert_param(IS_GPIO_EXTI_PORT_SOURCE(GPIO_PortSource));
  assert_param(IS_GPIO_PIN_SOURCE(GPIO_PinSource));
  
  tmp = ((uint32_t)0x0F) << (0x04 * (GPIO_PinSource & (uint8_t)0x03));
 800151a:	240f      	movs	r4, #15
 800151c:	f001 0303 	and.w	r3, r1, #3
 8001520:	f001 01fc 	and.w	r1, r1, #252	; 0xfc
 8001524:	f101 4180 	add.w	r1, r1, #1073741824	; 0x40000000
 8001528:	f501 3180 	add.w	r1, r1, #65536	; 0x10000
  AFIO->EXTICR[GPIO_PinSource >> 0x02] &= ~tmp;
 800152c:	688a      	ldr	r2, [r1, #8]
  tmp = ((uint32_t)0x0F) << (0x04 * (GPIO_PinSource & (uint8_t)0x03));
 800152e:	009b      	lsls	r3, r3, #2
 8001530:	409c      	lsls	r4, r3
  AFIO->EXTICR[GPIO_PinSource >> 0x02] &= ~tmp;
 8001532:	ea22 0204 	bic.w	r2, r2, r4
 8001536:	608a      	str	r2, [r1, #8]
  AFIO->EXTICR[GPIO_PinSource >> 0x02] |= (((uint32_t)GPIO_PortSource) << (0x04 * (GPIO_PinSource & (uint8_t)0x03)));
 8001538:	688a      	ldr	r2, [r1, #8]
 800153a:	4098      	lsls	r0, r3
 800153c:	4310      	orrs	r0, r2
 800153e:	6088      	str	r0, [r1, #8]
}
 8001540:	bd10      	pop	{r4, pc}
	...

08001544 <RCC_DeInit>:
  * @retval None
  */
void RCC_DeInit(void)
{
  /* Set HSION bit */
  RCC->CR |= (uint32_t)0x00000001;
 8001544:	4b0d      	ldr	r3, [pc, #52]	; (800157c <RCC_DeInit+0x38>)
 8001546:	681a      	ldr	r2, [r3, #0]
 8001548:	f042 0201 	orr.w	r2, r2, #1
 800154c:	601a      	str	r2, [r3, #0]

  /* Reset SW, HPRE, PPRE1, PPRE2, ADCPRE and MCO bits */
#ifndef STM32F10X_CL
  RCC->CFGR &= (uint32_t)0xF8FF0000;
 800154e:	6859      	ldr	r1, [r3, #4]
 8001550:	4a0b      	ldr	r2, [pc, #44]	; (8001580 <RCC_DeInit+0x3c>)
 8001552:	400a      	ands	r2, r1
 8001554:	605a      	str	r2, [r3, #4]
#else
  RCC->CFGR &= (uint32_t)0xF0FF0000;
#endif /* STM32F10X_CL */   
  
  /* Reset HSEON, CSSON and PLLON bits */
  RCC->CR &= (uint32_t)0xFEF6FFFF;
 8001556:	681a      	ldr	r2, [r3, #0]
 8001558:	f022 7284 	bic.w	r2, r2, #17301504	; 0x1080000
 800155c:	f422 3280 	bic.w	r2, r2, #65536	; 0x10000
 8001560:	601a      	str	r2, [r3, #0]

  /* Reset HSEBYP bit */
  RCC->CR &= (uint32_t)0xFFFBFFFF;
 8001562:	681a      	ldr	r2, [r3, #0]
 8001564:	f422 2280 	bic.w	r2, r2, #262144	; 0x40000
 8001568:	601a      	str	r2, [r3, #0]

  /* Reset PLLSRC, PLLXTPRE, PLLMUL and USBPRE/OTGFSPRE bits */
  RCC->CFGR &= (uint32_t)0xFF80FFFF;
 800156a:	685a      	ldr	r2, [r3, #4]
 800156c:	f422 02fe 	bic.w	r2, r2, #8323072	; 0x7f0000
 8001570:	605a      	str	r2, [r3, #4]

  /* Reset CFGR2 register */
  RCC->CFGR2 = 0x00000000;      
#else
  /* Disable all interrupts and clear pending bits  */
  RCC->CIR = 0x009F0000;
 8001572:	f44f 021f 	mov.w	r2, #10420224	; 0x9f0000
 8001576:	609a      	str	r2, [r3, #8]
#endif /* STM32F10X_CL */

}
 8001578:	4770      	bx	lr
 800157a:	bf00      	nop
 800157c:	40021000 	.word	0x40021000
 8001580:	f8ff0000 	.word	0xf8ff0000

08001584 <RCC_HSEConfig>:
{
  /* Check the parameters */
  assert_param(IS_RCC_HSE(RCC_HSE));
  /* Reset HSEON and HSEBYP bits before configuring the HSE ------------------*/
  /* Reset HSEON bit */
  RCC->CR &= CR_HSEON_Reset;
 8001584:	4b0c      	ldr	r3, [pc, #48]	; (80015b8 <RCC_HSEConfig+0x34>)
  /* Reset HSEBYP bit */
  RCC->CR &= CR_HSEBYP_Reset;
  /* Configure HSE (RCC_HSE_OFF is already covered by the code section above) */
  switch(RCC_HSE)
 8001586:	f5b0 3f80 	cmp.w	r0, #65536	; 0x10000
  RCC->CR &= CR_HSEON_Reset;
 800158a:	681a      	ldr	r2, [r3, #0]
 800158c:	f422 3280 	bic.w	r2, r2, #65536	; 0x10000
 8001590:	601a      	str	r2, [r3, #0]
  RCC->CR &= CR_HSEBYP_Reset;
 8001592:	681a      	ldr	r2, [r3, #0]
 8001594:	f422 2280 	bic.w	r2, r2, #262144	; 0x40000
 8001598:	601a      	str	r2, [r3, #0]
  switch(RCC_HSE)
 800159a:	d003      	beq.n	80015a4 <RCC_HSEConfig+0x20>
 800159c:	f5b0 2f80 	cmp.w	r0, #262144	; 0x40000
 80015a0:	d005      	beq.n	80015ae <RCC_HSEConfig+0x2a>
 80015a2:	4770      	bx	lr
  {
    case RCC_HSE_ON:
      /* Set HSEON bit */
      RCC->CR |= CR_HSEON_Set;
 80015a4:	681a      	ldr	r2, [r3, #0]
 80015a6:	f442 3280 	orr.w	r2, r2, #65536	; 0x10000
      break;
      
    case RCC_HSE_Bypass:
      /* Set HSEBYP and HSEON bits */
      RCC->CR |= CR_HSEBYP_Set | CR_HSEON_Set;
 80015aa:	601a      	str	r2, [r3, #0]
      break;
      
    default:
      break;
  }
}
 80015ac:	4770      	bx	lr
      RCC->CR |= CR_HSEBYP_Set | CR_HSEON_Set;
 80015ae:	681a      	ldr	r2, [r3, #0]
 80015b0:	f442 22a0 	orr.w	r2, r2, #327680	; 0x50000
 80015b4:	e7f9      	b.n	80015aa <RCC_HSEConfig+0x26>
 80015b6:	bf00      	nop
 80015b8:	40021000 	.word	0x40021000

080015bc <RCC_PLLConfig>:

  /* Check the parameters */
  assert_param(IS_RCC_PLL_SOURCE(RCC_PLLSource));
  assert_param(IS_RCC_PLL_MUL(RCC_PLLMul));

  tmpreg = RCC->CFGR;
 80015bc:	4a03      	ldr	r2, [pc, #12]	; (80015cc <RCC_PLLConfig+0x10>)
 80015be:	6853      	ldr	r3, [r2, #4]
  /* Clear PLLSRC, PLLXTPRE and PLLMUL[3:0] bits */
  tmpreg &= CFGR_PLL_Mask;
 80015c0:	f423 137c 	bic.w	r3, r3, #4128768	; 0x3f0000
 80015c4:	430b      	orrs	r3, r1
  /* Set the PLL configuration bits */
  tmpreg |= RCC_PLLSource | RCC_PLLMul;
 80015c6:	4303      	orrs	r3, r0
  /* Store the new value */
  RCC->CFGR = tmpreg;
 80015c8:	6053      	str	r3, [r2, #4]
}
 80015ca:	4770      	bx	lr
 80015cc:	40021000 	.word	0x40021000

080015d0 <RCC_PLLCmd>:
void RCC_PLLCmd(FunctionalState NewState)
{
  /* Check the parameters */
  assert_param(IS_FUNCTIONAL_STATE(NewState));

  *(__IO uint32_t *) CR_PLLON_BB = (uint32_t)NewState;
 80015d0:	4b01      	ldr	r3, [pc, #4]	; (80015d8 <RCC_PLLCmd+0x8>)
 80015d2:	6018      	str	r0, [r3, #0]
}
 80015d4:	4770      	bx	lr
 80015d6:	bf00      	nop
 80015d8:	42420060 	.word	0x42420060

080015dc <RCC_SYSCLKConfig>:
void RCC_SYSCLKConfig(uint32_t RCC_SYSCLKSource)
{
  uint32_t tmpreg = 0;
  /* Check the parameters */
  assert_param(IS_RCC_SYSCLK_SOURCE(RCC_SYSCLKSource));
  tmpreg = RCC->CFGR;
 80015dc:	4a03      	ldr	r2, [pc, #12]	; (80015ec <RCC_SYSCLKConfig+0x10>)
 80015de:	6853      	ldr	r3, [r2, #4]
  /* Clear SW[1:0] bits */
  tmpreg &= CFGR_SW_Mask;
 80015e0:	f023 0303 	bic.w	r3, r3, #3
  /* Set SW[1:0] bits according to RCC_SYSCLKSource value */
  tmpreg |= RCC_SYSCLKSource;
 80015e4:	4303      	orrs	r3, r0
  /* Store the new value */
  RCC->CFGR = tmpreg;
 80015e6:	6053      	str	r3, [r2, #4]
}
 80015e8:	4770      	bx	lr
 80015ea:	bf00      	nop
 80015ec:	40021000 	.word	0x40021000

080015f0 <RCC_GetSYSCLKSource>:
  *     - 0x04: HSE used as system clock
  *     - 0x08: PLL used as system clock
  */
uint8_t RCC_GetSYSCLKSource(void)
{
  return ((uint8_t)(RCC->CFGR & CFGR_SWS_Mask));
 80015f0:	4b02      	ldr	r3, [pc, #8]	; (80015fc <RCC_GetSYSCLKSource+0xc>)
 80015f2:	6858      	ldr	r0, [r3, #4]
}
 80015f4:	f000 000c 	and.w	r0, r0, #12
 80015f8:	4770      	bx	lr
 80015fa:	bf00      	nop
 80015fc:	40021000 	.word	0x40021000

08001600 <RCC_HCLKConfig>:
void RCC_HCLKConfig(uint32_t RCC_SYSCLK)
{
  uint32_t tmpreg = 0;
  /* Check the parameters */
  assert_param(IS_RCC_HCLK(RCC_SYSCLK));
  tmpreg = RCC->CFGR;
 8001600:	4a03      	ldr	r2, [pc, #12]	; (8001610 <RCC_HCLKConfig+0x10>)
 8001602:	6853      	ldr	r3, [r2, #4]
  /* Clear HPRE[3:0] bits */
  tmpreg &= CFGR_HPRE_Reset_Mask;
 8001604:	f023 03f0 	bic.w	r3, r3, #240	; 0xf0
  /* Set HPRE[3:0] bits according to RCC_SYSCLK value */
  tmpreg |= RCC_SYSCLK;
 8001608:	4303      	orrs	r3, r0
  /* Store the new value */
  RCC->CFGR = tmpreg;
 800160a:	6053      	str	r3, [r2, #4]
}
 800160c:	4770      	bx	lr
 800160e:	bf00      	nop
 8001610:	40021000 	.word	0x40021000

08001614 <RCC_PCLK1Config>:
void RCC_PCLK1Config(uint32_t RCC_HCLK)
{
  uint32_t tmpreg = 0;
  /* Check the parameters */
  assert_param(IS_RCC_PCLK(RCC_HCLK));
  tmpreg = RCC->CFGR;
 8001614:	4a03      	ldr	r2, [pc, #12]	; (8001624 <RCC_PCLK1Config+0x10>)
 8001616:	6853      	ldr	r3, [r2, #4]
  /* Clear PPRE1[2:0] bits */
  tmpreg &= CFGR_PPRE1_Reset_Mask;
 8001618:	f423 63e0 	bic.w	r3, r3, #1792	; 0x700
  /* Set PPRE1[2:0] bits according to RCC_HCLK value */
  tmpreg |= RCC_HCLK;
 800161c:	4303      	orrs	r3, r0
  /* Store the new value */
  RCC->CFGR = tmpreg;
 800161e:	6053      	str	r3, [r2, #4]
}
 8001620:	4770      	bx	lr
 8001622:	bf00      	nop
 8001624:	40021000 	.word	0x40021000

08001628 <RCC_PCLK2Config>:
void RCC_PCLK2Config(uint32_t RCC_HCLK)
{
  uint32_t tmpreg = 0;
  /* Check the parameters */
  assert_param(IS_RCC_PCLK(RCC_HCLK));
  tmpreg = RCC->CFGR;
 8001628:	4a03      	ldr	r2, [pc, #12]	; (8001638 <RCC_PCLK2Config+0x10>)
 800162a:	6853      	ldr	r3, [r2, #4]
  /* Clear PPRE2[2:0] bits */
  tmpreg &= CFGR_PPRE2_Reset_Mask;
 800162c:	f423 5360 	bic.w	r3, r3, #14336	; 0x3800
  /* Set PPRE2[2:0] bits according to RCC_HCLK value */
  tmpreg |= RCC_HCLK << 3;
 8001630:	ea43 03c0 	orr.w	r3, r3, r0, lsl #3
  /* Store the new value */
  RCC->CFGR = tmpreg;
 8001634:	6053      	str	r3, [r2, #4]
}
 8001636:	4770      	bx	lr
 8001638:	40021000 	.word	0x40021000

0800163c <RCC_GetClocksFreq>:
#if defined (STM32F10X_LD_VL) || defined (STM32F10X_MD_VL) || defined (STM32F10X_HD_VL)
  uint32_t prediv1factor = 0;
#endif
    
  /* Get SYSCLK source -------------------------------------------------------*/
  tmp = RCC->CFGR & CFGR_SWS_Mask;
 800163c:	4a1d      	ldr	r2, [pc, #116]	; (80016b4 <RCC_GetClocksFreq+0x78>)
{
 800163e:	b510      	push	{r4, lr}
  tmp = RCC->CFGR & CFGR_SWS_Mask;
 8001640:	6853      	ldr	r3, [r2, #4]
 8001642:	f003 030c 	and.w	r3, r3, #12
  
  switch (tmp)
 8001646:	2b04      	cmp	r3, #4
 8001648:	d021      	beq.n	800168e <RCC_GetClocksFreq+0x52>
 800164a:	2b08      	cmp	r3, #8
 800164c:	d021      	beq.n	8001692 <RCC_GetClocksFreq+0x56>
  {
    case 0x00:  /* HSI used as system clock */
      RCC_Clocks->SYSCLK_Frequency = HSI_VALUE;
 800164e:	4b1a      	ldr	r3, [pc, #104]	; (80016b8 <RCC_GetClocksFreq+0x7c>)
        {/* HSE oscillator clock divided by 2 */
          RCC_Clocks->SYSCLK_Frequency = (HSE_VALUE >> 1) * pllmull;
        }
        else
        {
          RCC_Clocks->SYSCLK_Frequency = HSE_VALUE * pllmull;
 8001650:	6003      	str	r3, [r0, #0]
      break;
  }

  /* Compute HCLK, PCLK1, PCLK2 and ADCCLK clocks frequencies ----------------*/
  /* Get HCLK prescaler */
  tmp = RCC->CFGR & CFGR_HPRE_Set_Mask;
 8001652:	6853      	ldr	r3, [r2, #4]
  tmp = tmp >> 4;
  presc = APBAHBPrescTable[tmp];
 8001654:	4919      	ldr	r1, [pc, #100]	; (80016bc <RCC_GetClocksFreq+0x80>)
  tmp = tmp >> 4;
 8001656:	f3c3 1303 	ubfx	r3, r3, #4, #4
  presc = APBAHBPrescTable[tmp];
 800165a:	5ccc      	ldrb	r4, [r1, r3]
  /* HCLK clock frequency */
  RCC_Clocks->HCLK_Frequency = RCC_Clocks->SYSCLK_Frequency >> presc;
 800165c:	6803      	ldr	r3, [r0, #0]
 800165e:	40e3      	lsrs	r3, r4
 8001660:	6043      	str	r3, [r0, #4]
  /* Get PCLK1 prescaler */
  tmp = RCC->CFGR & CFGR_PPRE1_Set_Mask;
 8001662:	6854      	ldr	r4, [r2, #4]
  tmp = tmp >> 8;
 8001664:	f3c4 2402 	ubfx	r4, r4, #8, #3
  presc = APBAHBPrescTable[tmp];
 8001668:	5d0c      	ldrb	r4, [r1, r4]
  /* PCLK1 clock frequency */
  RCC_Clocks->PCLK1_Frequency = RCC_Clocks->HCLK_Frequency >> presc;
 800166a:	fa23 f404 	lsr.w	r4, r3, r4
 800166e:	6084      	str	r4, [r0, #8]
  /* Get PCLK2 prescaler */
  tmp = RCC->CFGR & CFGR_PPRE2_Set_Mask;
 8001670:	6854      	ldr	r4, [r2, #4]
  tmp = tmp >> 11;
 8001672:	f3c4 24c2 	ubfx	r4, r4, #11, #3
  presc = APBAHBPrescTable[tmp];
 8001676:	5d0c      	ldrb	r4, [r1, r4]
  /* PCLK2 clock frequency */
  RCC_Clocks->PCLK2_Frequency = RCC_Clocks->HCLK_Frequency >> presc;
 8001678:	40e3      	lsrs	r3, r4
 800167a:	60c3      	str	r3, [r0, #12]
  /* Get ADCCLK prescaler */
  tmp = RCC->CFGR & CFGR_ADCPRE_Set_Mask;
 800167c:	6852      	ldr	r2, [r2, #4]
  tmp = tmp >> 14;
 800167e:	f3c2 3281 	ubfx	r2, r2, #14, #2
  presc = ADCPrescTable[tmp];
 8001682:	4411      	add	r1, r2
 8001684:	7c0a      	ldrb	r2, [r1, #16]
  /* ADCCLK clock frequency */
  RCC_Clocks->ADCCLK_Frequency = RCC_Clocks->PCLK2_Frequency / presc;
 8001686:	fbb3 f3f2 	udiv	r3, r3, r2
 800168a:	6103      	str	r3, [r0, #16]
}
 800168c:	bd10      	pop	{r4, pc}
      RCC_Clocks->SYSCLK_Frequency = HSE_VALUE;
 800168e:	4b0c      	ldr	r3, [pc, #48]	; (80016c0 <RCC_GetClocksFreq+0x84>)
 8001690:	e7de      	b.n	8001650 <RCC_GetClocksFreq+0x14>
      pllmull = RCC->CFGR & CFGR_PLLMull_Mask;
 8001692:	6853      	ldr	r3, [r2, #4]
      pllsource = RCC->CFGR & CFGR_PLLSRC_Mask;
 8001694:	6851      	ldr	r1, [r2, #4]
      pllmull = ( pllmull >> 18) + 2;
 8001696:	f3c3 4383 	ubfx	r3, r3, #18, #4
      if (pllsource == 0x00)
 800169a:	03cc      	lsls	r4, r1, #15
      pllmull = ( pllmull >> 18) + 2;
 800169c:	f103 0302 	add.w	r3, r3, #2
      if (pllsource == 0x00)
 80016a0:	d402      	bmi.n	80016a8 <RCC_GetClocksFreq+0x6c>
        RCC_Clocks->SYSCLK_Frequency = (HSI_VALUE >> 1) * pllmull;
 80016a2:	4908      	ldr	r1, [pc, #32]	; (80016c4 <RCC_GetClocksFreq+0x88>)
          RCC_Clocks->SYSCLK_Frequency = HSE_VALUE * pllmull;
 80016a4:	434b      	muls	r3, r1
 80016a6:	e7d3      	b.n	8001650 <RCC_GetClocksFreq+0x14>
        if ((RCC->CFGR & CFGR_PLLXTPRE_Mask) != (uint32_t)RESET)
 80016a8:	6851      	ldr	r1, [r2, #4]
 80016aa:	0389      	lsls	r1, r1, #14
          RCC_Clocks->SYSCLK_Frequency = (HSE_VALUE >> 1) * pllmull;
 80016ac:	bf4c      	ite	mi
 80016ae:	4906      	ldrmi	r1, [pc, #24]	; (80016c8 <RCC_GetClocksFreq+0x8c>)
          RCC_Clocks->SYSCLK_Frequency = HSE_VALUE * pllmull;
 80016b0:	4903      	ldrpl	r1, [pc, #12]	; (80016c0 <RCC_GetClocksFreq+0x84>)
 80016b2:	e7f7      	b.n	80016a4 <RCC_GetClocksFreq+0x68>
 80016b4:	40021000 	.word	0x40021000
 80016b8:	007a1200 	.word	0x007a1200
 80016bc:	20000008 	.word	0x20000008
 80016c0:	00b71b00 	.word	0x00b71b00
 80016c4:	003d0900 	.word	0x003d0900
 80016c8:	005b8d80 	.word	0x005b8d80

080016cc <RCC_APB2PeriphClockCmd>:
void RCC_APB2PeriphClockCmd(uint32_t RCC_APB2Periph, FunctionalState NewState)
{
  /* Check the parameters */
  assert_param(IS_RCC_APB2_PERIPH(RCC_APB2Periph));
  assert_param(IS_FUNCTIONAL_STATE(NewState));
  if (NewState != DISABLE)
 80016cc:	4b04      	ldr	r3, [pc, #16]	; (80016e0 <RCC_APB2PeriphClockCmd+0x14>)
  {
    RCC->APB2ENR |= RCC_APB2Periph;
 80016ce:	699a      	ldr	r2, [r3, #24]
  if (NewState != DISABLE)
 80016d0:	b111      	cbz	r1, 80016d8 <RCC_APB2PeriphClockCmd+0xc>
    RCC->APB2ENR |= RCC_APB2Periph;
 80016d2:	4310      	orrs	r0, r2
  }
  else
  {
    RCC->APB2ENR &= ~RCC_APB2Periph;
 80016d4:	6198      	str	r0, [r3, #24]
  }
}
 80016d6:	4770      	bx	lr
    RCC->APB2ENR &= ~RCC_APB2Periph;
 80016d8:	ea22 0000 	bic.w	r0, r2, r0
 80016dc:	e7fa      	b.n	80016d4 <RCC_APB2PeriphClockCmd+0x8>
 80016de:	bf00      	nop
 80016e0:	40021000 	.word	0x40021000

080016e4 <RCC_APB1PeriphClockCmd>:
void RCC_APB1PeriphClockCmd(uint32_t RCC_APB1Periph, FunctionalState NewState)
{
  /* Check the parameters */
  assert_param(IS_RCC_APB1_PERIPH(RCC_APB1Periph));
  assert_param(IS_FUNCTIONAL_STATE(NewState));
  if (NewState != DISABLE)
 80016e4:	4b04      	ldr	r3, [pc, #16]	; (80016f8 <RCC_APB1PeriphClockCmd+0x14>)
  {
    RCC->APB1ENR |= RCC_APB1Periph;
 80016e6:	69da      	ldr	r2, [r3, #28]
  if (NewState != DISABLE)
 80016e8:	b111      	cbz	r1, 80016f0 <RCC_APB1PeriphClockCmd+0xc>
    RCC->APB1ENR |= RCC_APB1Periph;
 80016ea:	4310      	orrs	r0, r2
  }
  else
  {
    RCC->APB1ENR &= ~RCC_APB1Periph;
 80016ec:	61d8      	str	r0, [r3, #28]
  }
}
 80016ee:	4770      	bx	lr
    RCC->APB1ENR &= ~RCC_APB1Periph;
 80016f0:	ea22 0000 	bic.w	r0, r2, r0
 80016f4:	e7fa      	b.n	80016ec <RCC_APB1PeriphClockCmd+0x8>
 80016f6:	bf00      	nop
 80016f8:	40021000 	.word	0x40021000

080016fc <RCC_GetFlagStatus>:
  FlagStatus bitstatus = RESET;
  /* Check the parameters */
  assert_param(IS_RCC_FLAG(RCC_FLAG));

  /* Get the RCC register index */
  tmp = RCC_FLAG >> 5;
 80016fc:	0942      	lsrs	r2, r0, #5
  if (tmp == 1)               /* The flag to check is in CR register */
 80016fe:	2a01      	cmp	r2, #1
 8001700:	4b07      	ldr	r3, [pc, #28]	; (8001720 <RCC_GetFlagStatus+0x24>)
 8001702:	d107      	bne.n	8001714 <RCC_GetFlagStatus+0x18>
  {
    statusreg = RCC->CR;
 8001704:	681b      	ldr	r3, [r3, #0]
  {
    statusreg = RCC->CSR;
  }

  /* Get the flag position */
  tmp = RCC_FLAG & FLAG_Mask;
 8001706:	f000 001f 	and.w	r0, r0, #31
  if ((statusreg & ((uint32_t)1 << tmp)) != (uint32_t)RESET)
 800170a:	fa23 f000 	lsr.w	r0, r3, r0
    bitstatus = RESET;
  }

  /* Return the flag status */
  return bitstatus;
}
 800170e:	f000 0001 	and.w	r0, r0, #1
 8001712:	4770      	bx	lr
  else if (tmp == 2)          /* The flag to check is in BDCR register */
 8001714:	2a02      	cmp	r2, #2
    statusreg = RCC->BDCR;
 8001716:	bf0c      	ite	eq
 8001718:	6a1b      	ldreq	r3, [r3, #32]
    statusreg = RCC->CSR;
 800171a:	6a5b      	ldrne	r3, [r3, #36]	; 0x24
 800171c:	e7f3      	b.n	8001706 <RCC_GetFlagStatus+0xa>
 800171e:	bf00      	nop
 8001720:	40021000 	.word	0x40021000

08001724 <RCC_WaitForHSEStartUp>:
  __IO uint32_t StartUpCounter = 0;
 8001724:	2300      	movs	r3, #0
{
 8001726:	b507      	push	{r0, r1, r2, lr}
  __IO uint32_t StartUpCounter = 0;
 8001728:	9301      	str	r3, [sp, #4]
    HSEStatus = RCC_GetFlagStatus(RCC_FLAG_HSERDY);
 800172a:	2031      	movs	r0, #49	; 0x31
 800172c:	f7ff ffe6 	bl	80016fc <RCC_GetFlagStatus>
    StartUpCounter++;  
 8001730:	9b01      	ldr	r3, [sp, #4]
 8001732:	3301      	adds	r3, #1
 8001734:	9301      	str	r3, [sp, #4]
  } while((StartUpCounter != HSE_STARTUP_TIMEOUT) && (HSEStatus == RESET));
 8001736:	9b01      	ldr	r3, [sp, #4]
 8001738:	f5b3 6fa0 	cmp.w	r3, #1280	; 0x500
 800173c:	d001      	beq.n	8001742 <RCC_WaitForHSEStartUp+0x1e>
 800173e:	2800      	cmp	r0, #0
 8001740:	d0f3      	beq.n	800172a <RCC_WaitForHSEStartUp+0x6>
  if (RCC_GetFlagStatus(RCC_FLAG_HSERDY) != RESET)
 8001742:	2031      	movs	r0, #49	; 0x31
 8001744:	f7ff ffda 	bl	80016fc <RCC_GetFlagStatus>
}
 8001748:	3800      	subs	r0, #0
 800174a:	bf18      	it	ne
 800174c:	2001      	movne	r0, #1
 800174e:	b003      	add	sp, #12
 8001750:	f85d fb04 	ldr.w	pc, [sp], #4

08001754 <SPI_Init>:
  assert_param(IS_SPI_FIRST_BIT(SPI_InitStruct->SPI_FirstBit));
  assert_param(IS_SPI_CRC_POLYNOMIAL(SPI_InitStruct->SPI_CRCPolynomial));

/*---------------------------- SPIx CR1 Configuration ------------------------*/
  /* Get the SPIx CR1 value */
  tmpreg = SPIx->CR1;
 8001754:	8803      	ldrh	r3, [r0, #0]
{
 8001756:	b510      	push	{r4, lr}
  /* Clear BIDIMode, BIDIOE, RxONLY, SSM, SSI, LSBFirst, BR, MSTR, CPOL and CPHA bits */
  tmpreg &= CR1_CLEAR_Mask;
 8001758:	f403 5241 	and.w	r2, r3, #12352	; 0x3040
  /* Set SSM, SSI and MSTR bits according to SPI_Mode and SPI_NSS values */
  /* Set LSBFirst bit according to SPI_FirstBit value */
  /* Set BR bits according to SPI_BaudRatePrescaler value */
  /* Set CPOL bit according to SPI_CPOL value */
  /* Set CPHA bit according to SPI_CPHA value */
  tmpreg |= (uint16_t)((uint32_t)SPI_InitStruct->SPI_Direction | SPI_InitStruct->SPI_Mode |
 800175c:	884c      	ldrh	r4, [r1, #2]
 800175e:	880b      	ldrh	r3, [r1, #0]
 8001760:	4323      	orrs	r3, r4
 8001762:	888c      	ldrh	r4, [r1, #4]
 8001764:	4323      	orrs	r3, r4
 8001766:	88cc      	ldrh	r4, [r1, #6]
 8001768:	4323      	orrs	r3, r4
 800176a:	890c      	ldrh	r4, [r1, #8]
 800176c:	4323      	orrs	r3, r4
 800176e:	894c      	ldrh	r4, [r1, #10]
 8001770:	4323      	orrs	r3, r4
 8001772:	898c      	ldrh	r4, [r1, #12]
 8001774:	4323      	orrs	r3, r4
 8001776:	89cc      	ldrh	r4, [r1, #14]
 8001778:	4323      	orrs	r3, r4
 800177a:	4313      	orrs	r3, r2
 800177c:	b29b      	uxth	r3, r3
                  SPI_InitStruct->SPI_DataSize | SPI_InitStruct->SPI_CPOL |  
                  SPI_InitStruct->SPI_CPHA | SPI_InitStruct->SPI_NSS |  
                  SPI_InitStruct->SPI_BaudRatePrescaler | SPI_InitStruct->SPI_FirstBit);
  /* Write to SPIx CR1 */
  SPIx->CR1 = tmpreg;
 800177e:	8003      	strh	r3, [r0, #0]
  
  /* Activate the SPI mode (Reset I2SMOD bit in I2SCFGR register) */
  SPIx->I2SCFGR &= SPI_Mode_Select;		
 8001780:	8b83      	ldrh	r3, [r0, #28]
 8001782:	f423 6300 	bic.w	r3, r3, #2048	; 0x800
 8001786:	041b      	lsls	r3, r3, #16
 8001788:	0c1b      	lsrs	r3, r3, #16
 800178a:	8383      	strh	r3, [r0, #28]

/*---------------------------- SPIx CRCPOLY Configuration --------------------*/
  /* Write to SPIx CRCPOLY */
  SPIx->CRCPR = SPI_InitStruct->SPI_CRCPolynomial;
 800178c:	8a0b      	ldrh	r3, [r1, #16]
 800178e:	8203      	strh	r3, [r0, #16]
}
 8001790:	bd10      	pop	{r4, pc}

08001792 <SPI_Cmd>:
  assert_param(IS_SPI_ALL_PERIPH(SPIx));
  assert_param(IS_FUNCTIONAL_STATE(NewState));
  if (NewState != DISABLE)
  {
    /* Enable the selected SPI peripheral */
    SPIx->CR1 |= CR1_SPE_Set;
 8001792:	8803      	ldrh	r3, [r0, #0]
  if (NewState != DISABLE)
 8001794:	b121      	cbz	r1, 80017a0 <SPI_Cmd+0xe>
    SPIx->CR1 |= CR1_SPE_Set;
 8001796:	b29b      	uxth	r3, r3
 8001798:	f043 0340 	orr.w	r3, r3, #64	; 0x40
  }
  else
  {
    /* Disable the selected SPI peripheral */
    SPIx->CR1 &= CR1_SPE_Reset;
 800179c:	8003      	strh	r3, [r0, #0]
  }
}
 800179e:	4770      	bx	lr
    SPIx->CR1 &= CR1_SPE_Reset;
 80017a0:	f023 0340 	bic.w	r3, r3, #64	; 0x40
 80017a4:	041b      	lsls	r3, r3, #16
 80017a6:	0c1b      	lsrs	r3, r3, #16
 80017a8:	e7f8      	b.n	800179c <SPI_Cmd+0xa>

080017aa <SPI_I2S_SendData>:
{
  /* Check the parameters */
  assert_param(IS_SPI_ALL_PERIPH(SPIx));
  
  /* Write in the DR register the data to be sent */
  SPIx->DR = Data;
 80017aa:	8181      	strh	r1, [r0, #12]
}
 80017ac:	4770      	bx	lr

080017ae <SPI_I2S_ReceiveData>:
{
  /* Check the parameters */
  assert_param(IS_SPI_ALL_PERIPH(SPIx));
  
  /* Return the data in the DR register */
  return SPIx->DR;
 80017ae:	8980      	ldrh	r0, [r0, #12]
}
 80017b0:	b280      	uxth	r0, r0
 80017b2:	4770      	bx	lr

080017b4 <SPI_I2S_GetFlagStatus>:
  FlagStatus bitstatus = RESET;
  /* Check the parameters */
  assert_param(IS_SPI_ALL_PERIPH(SPIx));
  assert_param(IS_SPI_I2S_GET_FLAG(SPI_I2S_FLAG));
  /* Check the status of the specified SPI/I2S flag */
  if ((SPIx->SR & SPI_I2S_FLAG) != (uint16_t)RESET)
 80017b4:	8903      	ldrh	r3, [r0, #8]
 80017b6:	4219      	tst	r1, r3
    /* SPI_I2S_FLAG is reset */
    bitstatus = RESET;
  }
  /* Return the SPI_I2S_FLAG status */
  return  bitstatus;
}
 80017b8:	bf14      	ite	ne
 80017ba:	2001      	movne	r0, #1
 80017bc:	2000      	moveq	r0, #0
 80017be:	4770      	bx	lr

080017c0 <USART_Init>:
  *         that contains the configuration information for the specified USART 
  *         peripheral.
  * @retval None
  */
void USART_Init(USART_TypeDef* USARTx, USART_InitTypeDef* USART_InitStruct)
{
 80017c0:	b530      	push	{r4, r5, lr}
 80017c2:	460d      	mov	r5, r1
 80017c4:	4604      	mov	r4, r0
  }

  usartxbase = (uint32_t)USARTx;

/*---------------------------- USART CR2 Configuration -----------------------*/
  tmpreg = USARTx->CR2;
 80017c6:	8a03      	ldrh	r3, [r0, #16]
  if (USART_InitStruct->USART_HardwareFlowControl != USART_HardwareFlowControl_None)
 80017c8:	898a      	ldrh	r2, [r1, #12]
  tmpreg = USARTx->CR2;
 80017ca:	b29b      	uxth	r3, r3
  /* Clear STOP[13:12] bits */
  tmpreg &= CR2_STOP_CLEAR_Mask;
  /* Configure the USART Stop Bits, Clock, CPOL, CPHA and LastBit ------------*/
  /* Set STOP[13:12] bits according to USART_StopBits value */
  tmpreg |= (uint32_t)USART_InitStruct->USART_StopBits;
 80017cc:	88c9      	ldrh	r1, [r1, #6]
 80017ce:	f423 5340 	bic.w	r3, r3, #12288	; 0x3000
 80017d2:	430b      	orrs	r3, r1
  
  /* Write to USART CR2 */
  USARTx->CR2 = (uint16_t)tmpreg;
 80017d4:	8203      	strh	r3, [r0, #16]

/*---------------------------- USART CR1 Configuration -----------------------*/
  tmpreg = USARTx->CR1;
 80017d6:	8983      	ldrh	r3, [r0, #12]
  tmpreg &= CR1_CLEAR_Mask;
  /* Configure the USART Word Length, Parity and mode ----------------------- */
  /* Set the M bits according to USART_WordLength value */
  /* Set PCE and PS bits according to USART_Parity value */
  /* Set TE and RE bits according to USART_Mode value */
  tmpreg |= (uint32_t)USART_InitStruct->USART_WordLength | USART_InitStruct->USART_Parity |
 80017d8:	88a9      	ldrh	r1, [r5, #4]
 80017da:	f423 53b0 	bic.w	r3, r3, #5632	; 0x1600
 80017de:	f023 030c 	bic.w	r3, r3, #12
 80017e2:	041b      	lsls	r3, r3, #16
 80017e4:	0c1b      	lsrs	r3, r3, #16
 80017e6:	430b      	orrs	r3, r1
 80017e8:	8929      	ldrh	r1, [r5, #8]
{
 80017ea:	b087      	sub	sp, #28
 80017ec:	430b      	orrs	r3, r1
 80017ee:	8969      	ldrh	r1, [r5, #10]
 80017f0:	430b      	orrs	r3, r1
 80017f2:	b29b      	uxth	r3, r3
            USART_InitStruct->USART_Mode;
  /* Write to USART CR1 */
  USARTx->CR1 = (uint16_t)tmpreg;
 80017f4:	8183      	strh	r3, [r0, #12]

/*---------------------------- USART CR3 Configuration -----------------------*/  
  tmpreg = USARTx->CR3;
 80017f6:	8a83      	ldrh	r3, [r0, #20]
 80017f8:	b29b      	uxth	r3, r3
  /* Clear CTSE and RTSE bits */
  tmpreg &= CR3_CLEAR_Mask;
  /* Configure the USART HFC -------------------------------------------------*/
  /* Set CTSE and RTSE bits according to USART_HardwareFlowControl value */
  tmpreg |= USART_InitStruct->USART_HardwareFlowControl;
 80017fa:	f423 7340 	bic.w	r3, r3, #768	; 0x300
 80017fe:	4313      	orrs	r3, r2
  /* Write to USART CR3 */
  USARTx->CR3 = (uint16_t)tmpreg;
 8001800:	8283      	strh	r3, [r0, #20]

/*---------------------------- USART BRR Configuration -----------------------*/
  /* Configure the USART Baud Rate -------------------------------------------*/
  RCC_GetClocksFreq(&RCC_ClocksStatus);
 8001802:	a801      	add	r0, sp, #4
 8001804:	f7ff ff1a 	bl	800163c <RCC_GetClocksFreq>
  if (usartxbase == USART1_BASE)
  {
    apbclock = RCC_ClocksStatus.PCLK2_Frequency;
 8001808:	e9dd 1303 	ldrd	r1, r3, [sp, #12]
 800180c:	4a15      	ldr	r2, [pc, #84]	; (8001864 <USART_Init+0xa4>)
 800180e:	4294      	cmp	r4, r2
 8001810:	bf08      	it	eq
 8001812:	4619      	moveq	r1, r3
  {
    apbclock = RCC_ClocksStatus.PCLK1_Frequency;
  }
  
  /* Determine the integer part */
  if ((USARTx->CR1 & CR1_OVER8_Set) != 0)
 8001814:	2319      	movs	r3, #25
 8001816:	89a2      	ldrh	r2, [r4, #12]
 8001818:	434b      	muls	r3, r1
 800181a:	6829      	ldr	r1, [r5, #0]
 800181c:	0410      	lsls	r0, r2, #16
  {
    /* Integer part computing in case Oversampling mode is 8 Samples */
    integerdivider = ((25 * apbclock) / (2 * (USART_InitStruct->USART_BaudRate)));    
 800181e:	bf4c      	ite	mi
 8001820:	0049      	lslmi	r1, r1, #1
  }
  else /* if ((USARTx->CR1 & CR1_OVER8_Set) == 0) */
  {
    /* Integer part computing in case Oversampling mode is 16 Samples */
    integerdivider = ((25 * apbclock) / (4 * (USART_InitStruct->USART_BaudRate)));    
 8001822:	0089      	lslpl	r1, r1, #2
 8001824:	fbb3 f1f1 	udiv	r1, r3, r1
  }
  tmpreg = (integerdivider / 100) << 4;
 8001828:	2564      	movs	r5, #100	; 0x64
 800182a:	fbb1 f3f5 	udiv	r3, r1, r5

  /* Determine the fractional part */
  fractionaldivider = integerdivider - (100 * (tmpreg >> 4));

  /* Implement the fractional part in the register */
  if ((USARTx->CR1 & CR1_OVER8_Set) != 0)
 800182e:	89a2      	ldrh	r2, [r4, #12]
  tmpreg = (integerdivider / 100) << 4;
 8001830:	0118      	lsls	r0, r3, #4
  if ((USARTx->CR1 & CR1_OVER8_Set) != 0)
 8001832:	0412      	lsls	r2, r2, #16
 8001834:	fb05 1313 	mls	r3, r5, r3, r1
 8001838:	d50b      	bpl.n	8001852 <USART_Init+0x92>
  {
    tmpreg |= ((((fractionaldivider * 8) + 50) / 100)) & ((uint8_t)0x07);
 800183a:	00da      	lsls	r2, r3, #3
 800183c:	3232      	adds	r2, #50	; 0x32
 800183e:	fbb2 f2f5 	udiv	r2, r2, r5
 8001842:	f002 0207 	and.w	r2, r2, #7
 8001846:	ea42 0300 	orr.w	r3, r2, r0
  {
    tmpreg |= ((((fractionaldivider * 16) + 50) / 100)) & ((uint8_t)0x0F);
  }
  
  /* Write to USART BRR */
  USARTx->BRR = (uint16_t)tmpreg;
 800184a:	b29b      	uxth	r3, r3
 800184c:	8123      	strh	r3, [r4, #8]
}
 800184e:	b007      	add	sp, #28
 8001850:	bd30      	pop	{r4, r5, pc}
    tmpreg |= ((((fractionaldivider * 16) + 50) / 100)) & ((uint8_t)0x0F);
 8001852:	011b      	lsls	r3, r3, #4
 8001854:	3332      	adds	r3, #50	; 0x32
 8001856:	fbb3 f3f5 	udiv	r3, r3, r5
 800185a:	f003 030f 	and.w	r3, r3, #15
 800185e:	4303      	orrs	r3, r0
 8001860:	e7f3      	b.n	800184a <USART_Init+0x8a>
 8001862:	bf00      	nop
 8001864:	40013800 	.word	0x40013800

08001868 <USART_Cmd>:
  assert_param(IS_FUNCTIONAL_STATE(NewState));
  
  if (NewState != DISABLE)
  {
    /* Enable the selected USART by setting the UE bit in the CR1 register */
    USARTx->CR1 |= CR1_UE_Set;
 8001868:	8983      	ldrh	r3, [r0, #12]
  if (NewState != DISABLE)
 800186a:	b121      	cbz	r1, 8001876 <USART_Cmd+0xe>
    USARTx->CR1 |= CR1_UE_Set;
 800186c:	b29b      	uxth	r3, r3
 800186e:	f443 5300 	orr.w	r3, r3, #8192	; 0x2000
  }
  else
  {
    /* Disable the selected USART by clearing the UE bit in the CR1 register */
    USARTx->CR1 &= CR1_UE_Reset;
 8001872:	8183      	strh	r3, [r0, #12]
  }
}
 8001874:	4770      	bx	lr
    USARTx->CR1 &= CR1_UE_Reset;
 8001876:	f423 5300 	bic.w	r3, r3, #8192	; 0x2000
 800187a:	041b      	lsls	r3, r3, #16
 800187c:	0c1b      	lsrs	r3, r3, #16
 800187e:	e7f8      	b.n	8001872 <USART_Cmd+0xa>

08001880 <USART_ITConfig>:
  /* Get the USART register index */
  usartreg = (((uint8_t)USART_IT) >> 0x05);

  /* Get the interrupt position */
  itpos = USART_IT & IT_Mask;
  itmask = (((uint32_t)0x01) << itpos);
 8001880:	2301      	movs	r3, #1
{
 8001882:	b510      	push	{r4, lr}
  usartreg = (((uint8_t)USART_IT) >> 0x05);
 8001884:	f3c1 1442 	ubfx	r4, r1, #5, #3
    
  if (usartreg == 0x01) /* The IT is in CR1 register */
 8001888:	429c      	cmp	r4, r3
  itpos = USART_IT & IT_Mask;
 800188a:	f001 011f 	and.w	r1, r1, #31
  itmask = (((uint32_t)0x01) << itpos);
 800188e:	fa03 f101 	lsl.w	r1, r3, r1
  if (usartreg == 0x01) /* The IT is in CR1 register */
 8001892:	d105      	bne.n	80018a0 <USART_ITConfig+0x20>
  {
    usartxbase += 0x0C;
 8001894:	300c      	adds	r0, #12
  {
    usartxbase += 0x14; 
  }
  if (NewState != DISABLE)
  {
    *(__IO uint32_t*)usartxbase  |= itmask;
 8001896:	6803      	ldr	r3, [r0, #0]
  if (NewState != DISABLE)
 8001898:	b13a      	cbz	r2, 80018aa <USART_ITConfig+0x2a>
    *(__IO uint32_t*)usartxbase  |= itmask;
 800189a:	4319      	orrs	r1, r3
  }
  else
  {
    *(__IO uint32_t*)usartxbase &= ~itmask;
 800189c:	6001      	str	r1, [r0, #0]
  }
}
 800189e:	bd10      	pop	{r4, pc}
  else if (usartreg == 0x02) /* The IT is in CR2 register */
 80018a0:	2c02      	cmp	r4, #2
    usartxbase += 0x10;
 80018a2:	bf0c      	ite	eq
 80018a4:	3010      	addeq	r0, #16
    usartxbase += 0x14; 
 80018a6:	3014      	addne	r0, #20
 80018a8:	e7f5      	b.n	8001896 <USART_ITConfig+0x16>
    *(__IO uint32_t*)usartxbase &= ~itmask;
 80018aa:	ea23 0101 	bic.w	r1, r3, r1
 80018ae:	e7f5      	b.n	800189c <USART_ITConfig+0x1c>

080018b0 <USART_SendData>:
  /* Check the parameters */
  assert_param(IS_USART_ALL_PERIPH(USARTx));
  assert_param(IS_USART_DATA(Data)); 
    
  /* Transmit Data */
  USARTx->DR = (Data & (uint16_t)0x01FF);
 80018b0:	f3c1 0108 	ubfx	r1, r1, #0, #9
 80018b4:	8081      	strh	r1, [r0, #4]
}
 80018b6:	4770      	bx	lr

080018b8 <USART_ReceiveData>:
{
  /* Check the parameters */
  assert_param(IS_USART_ALL_PERIPH(USARTx));
  
  /* Receive Data */
  return (uint16_t)(USARTx->DR & (uint16_t)0x01FF);
 80018b8:	8880      	ldrh	r0, [r0, #4]
}
 80018ba:	f3c0 0008 	ubfx	r0, r0, #0, #9
 80018be:	4770      	bx	lr

080018c0 <USART_GetFlagStatus>:
  if (USART_FLAG == USART_FLAG_CTS)
  {
    assert_param(IS_USART_123_PERIPH(USARTx));
  }  
  
  if ((USARTx->SR & USART_FLAG) != (uint16_t)RESET)
 80018c0:	8803      	ldrh	r3, [r0, #0]
 80018c2:	4219      	tst	r1, r3
  else
  {
    bitstatus = RESET;
  }
  return bitstatus;
}
 80018c4:	bf14      	ite	ne
 80018c6:	2001      	movne	r0, #1
 80018c8:	2000      	moveq	r0, #0
 80018ca:	4770      	bx	lr

080018cc <USART_ClearFlag>:
  if ((USART_FLAG & USART_FLAG_CTS) == USART_FLAG_CTS)
  {
    assert_param(IS_USART_123_PERIPH(USARTx));
  } 
   
  USARTx->SR = (uint16_t)~USART_FLAG;
 80018cc:	43c9      	mvns	r1, r1
 80018ce:	b289      	uxth	r1, r1
 80018d0:	8001      	strh	r1, [r0, #0]
}
 80018d2:	4770      	bx	lr

080018d4 <USART_ClearITPendingBit>:
  {
    assert_param(IS_USART_123_PERIPH(USARTx));
  }   
  
  bitpos = USART_IT >> 0x08;
  itmask = ((uint16_t)0x01 << (uint16_t)bitpos);
 80018d4:	2301      	movs	r3, #1
 80018d6:	0a09      	lsrs	r1, r1, #8
 80018d8:	408b      	lsls	r3, r1
  USARTx->SR = (uint16_t)~itmask;
 80018da:	43db      	mvns	r3, r3
 80018dc:	b29b      	uxth	r3, r3
 80018de:	8003      	strh	r3, [r0, #0]
}
 80018e0:	4770      	bx	lr

080018e2 <lcd_delay_pool>:
}


void lcd_delay_pool(uint16_t time2delay)
{
	volatile uint32_t dummy = 0;
 80018e2:	2300      	movs	r3, #0
{
 80018e4:	b082      	sub	sp, #8
	volatile uint32_t dummy = 0;
 80018e6:	9301      	str	r3, [sp, #4]

	for (dummy = time2delay*500; dummy > 0 ; dummy--);
 80018e8:	f44f 73fa 	mov.w	r3, #500	; 0x1f4
 80018ec:	4343      	muls	r3, r0
 80018ee:	9301      	str	r3, [sp, #4]
 80018f0:	9b01      	ldr	r3, [sp, #4]
 80018f2:	b90b      	cbnz	r3, 80018f8 <lcd_delay_pool+0x16>
}
 80018f4:	b002      	add	sp, #8
 80018f6:	4770      	bx	lr
	for (dummy = time2delay*500; dummy > 0 ; dummy--);
 80018f8:	9b01      	ldr	r3, [sp, #4]
 80018fa:	3b01      	subs	r3, #1
 80018fc:	e7f7      	b.n	80018ee <lcd_delay_pool+0xc>
	...

08001900 <lcd_spi_send>:
	lcd_spi_send(txData);
	GPIO_WriteBit(GPIOA, GPIO_Pin_4, Bit_SET);
}

uint8_t lcd_spi_send( uint8_t txByte )
{
 8001900:	b538      	push	{r3, r4, r5, lr}
 8001902:	4604      	mov	r4, r0
	/* Loop while DR register in not emplty */
	while( SPI_I2S_GetFlagStatus( SPI1, SPI_I2S_FLAG_TXE ) == RESET );
 8001904:	4d0b      	ldr	r5, [pc, #44]	; (8001934 <lcd_spi_send+0x34>)
 8001906:	2102      	movs	r1, #2
 8001908:	4628      	mov	r0, r5
 800190a:	f7ff ff53 	bl	80017b4 <SPI_I2S_GetFlagStatus>
 800190e:	2800      	cmp	r0, #0
 8001910:	d0f9      	beq.n	8001906 <lcd_spi_send+0x6>
	/* Send byte through the SPI2 peripheral */
	SPI_I2S_SendData( SPI1, txByte );
 8001912:	4621      	mov	r1, r4
 8001914:	4807      	ldr	r0, [pc, #28]	; (8001934 <lcd_spi_send+0x34>)
 8001916:	f7ff ff48 	bl	80017aa <SPI_I2S_SendData>
	/* Wait to receive a byte */
	while( SPI_I2S_GetFlagStatus( SPI1, SPI_I2S_FLAG_RXNE ) == RESET );
 800191a:	4c06      	ldr	r4, [pc, #24]	; (8001934 <lcd_spi_send+0x34>)
 800191c:	2101      	movs	r1, #1
 800191e:	4620      	mov	r0, r4
 8001920:	f7ff ff48 	bl	80017b4 <SPI_I2S_GetFlagStatus>
 8001924:	2800      	cmp	r0, #0
 8001926:	d0f9      	beq.n	800191c <lcd_spi_send+0x1c>
	/* Return the byte read from the SPI bus */
	return SPI_I2S_ReceiveData( SPI1 );
 8001928:	4802      	ldr	r0, [pc, #8]	; (8001934 <lcd_spi_send+0x34>)
 800192a:	f7ff ff40 	bl	80017ae <SPI_I2S_ReceiveData>
}
 800192e:	b2c0      	uxtb	r0, r0
 8001930:	bd38      	pop	{r3, r4, r5, pc}
 8001932:	bf00      	nop
 8001934:	40013000 	.word	0x40013000

08001938 <lcd_send_commnad>:
{
 8001938:	b538      	push	{r3, r4, r5, lr}
 800193a:	4605      	mov	r5, r0
	GPIO_WriteBit(GPIOA, GPIO_Pin_8, Bit_RESET);
 800193c:	4c0a      	ldr	r4, [pc, #40]	; (8001968 <lcd_send_commnad+0x30>)
 800193e:	2200      	movs	r2, #0
 8001940:	4620      	mov	r0, r4
 8001942:	f44f 7180 	mov.w	r1, #256	; 0x100
 8001946:	f7ff fdb1 	bl	80014ac <GPIO_WriteBit>
	GPIO_WriteBit(GPIOA, GPIO_Pin_4, Bit_RESET);
 800194a:	2200      	movs	r2, #0
 800194c:	2110      	movs	r1, #16
 800194e:	4620      	mov	r0, r4
 8001950:	f7ff fdac 	bl	80014ac <GPIO_WriteBit>
	lcd_spi_send(txCommand);
 8001954:	4628      	mov	r0, r5
 8001956:	f7ff ffd3 	bl	8001900 <lcd_spi_send>
	GPIO_WriteBit(GPIOA, GPIO_Pin_4, Bit_SET);
 800195a:	4620      	mov	r0, r4
}
 800195c:	e8bd 4038 	ldmia.w	sp!, {r3, r4, r5, lr}
	GPIO_WriteBit(GPIOA, GPIO_Pin_4, Bit_SET);
 8001960:	2201      	movs	r2, #1
 8001962:	2110      	movs	r1, #16
 8001964:	f7ff bda2 	b.w	80014ac <GPIO_WriteBit>
 8001968:	40010800 	.word	0x40010800

0800196c <lcd_send_data>:
{
 800196c:	b538      	push	{r3, r4, r5, lr}
 800196e:	4605      	mov	r5, r0
	GPIO_WriteBit(GPIOA, GPIO_Pin_8, Bit_SET);
 8001970:	4c0a      	ldr	r4, [pc, #40]	; (800199c <lcd_send_data+0x30>)
 8001972:	2201      	movs	r2, #1
 8001974:	4620      	mov	r0, r4
 8001976:	f44f 7180 	mov.w	r1, #256	; 0x100
 800197a:	f7ff fd97 	bl	80014ac <GPIO_WriteBit>
	GPIO_WriteBit(GPIOA, GPIO_Pin_4, Bit_RESET);
 800197e:	2200      	movs	r2, #0
 8001980:	2110      	movs	r1, #16
 8001982:	4620      	mov	r0, r4
 8001984:	f7ff fd92 	bl	80014ac <GPIO_WriteBit>
	lcd_spi_send(txData);
 8001988:	4628      	mov	r0, r5
 800198a:	f7ff ffb9 	bl	8001900 <lcd_spi_send>
	GPIO_WriteBit(GPIOA, GPIO_Pin_4, Bit_SET);
 800198e:	4620      	mov	r0, r4
}
 8001990:	e8bd 4038 	ldmia.w	sp!, {r3, r4, r5, lr}
	GPIO_WriteBit(GPIOA, GPIO_Pin_4, Bit_SET);
 8001994:	2201      	movs	r2, #1
 8001996:	2110      	movs	r1, #16
 8001998:	f7ff bd88 	b.w	80014ac <GPIO_WriteBit>
 800199c:	40010800 	.word	0x40010800

080019a0 <lcd_setAddrWindow>:
  GPIO_WriteBit(GPIOA, GPIO_Pin_4, Bit_SET);
}


void lcd_setAddrWindow( uint8_t x,uint8_t y,uint8_t x1,uint8_t y1 )
{
 80019a0:	b5f8      	push	{r3, r4, r5, r6, r7, lr}
 80019a2:	4607      	mov	r7, r0
 80019a4:	4616      	mov	r6, r2
 80019a6:	460d      	mov	r5, r1
 80019a8:	461c      	mov	r4, r3
	lcd_send_commnad(ST7735_CASET);
 80019aa:	202a      	movs	r0, #42	; 0x2a
 80019ac:	f7ff ffc4 	bl	8001938 <lcd_send_commnad>
	lcd_send_data(0x00);
 80019b0:	2000      	movs	r0, #0
 80019b2:	f7ff ffdb 	bl	800196c <lcd_send_data>
	lcd_send_data(x+0);
 80019b6:	4638      	mov	r0, r7
 80019b8:	f7ff ffd8 	bl	800196c <lcd_send_data>
	lcd_send_data(0x00);
 80019bc:	2000      	movs	r0, #0
 80019be:	f7ff ffd5 	bl	800196c <lcd_send_data>
	lcd_send_data(x1+0);
 80019c2:	4630      	mov	r0, r6
 80019c4:	f7ff ffd2 	bl	800196c <lcd_send_data>

	lcd_send_commnad(ST7735_RASET);
 80019c8:	202b      	movs	r0, #43	; 0x2b
 80019ca:	f7ff ffb5 	bl	8001938 <lcd_send_commnad>
	lcd_send_data(0x00);
 80019ce:	2000      	movs	r0, #0
 80019d0:	f7ff ffcc 	bl	800196c <lcd_send_data>
	lcd_send_data(y+0);
 80019d4:	4628      	mov	r0, r5
 80019d6:	f7ff ffc9 	bl	800196c <lcd_send_data>
	lcd_send_data(0x00);
 80019da:	2000      	movs	r0, #0
 80019dc:	f7ff ffc6 	bl	800196c <lcd_send_data>
	lcd_send_data(y1+0);
 80019e0:	4620      	mov	r0, r4
 80019e2:	f7ff ffc3 	bl	800196c <lcd_send_data>
	lcd_send_commnad(ST7735_RAMWR);
}
 80019e6:	e8bd 40f8 	ldmia.w	sp!, {r3, r4, r5, r6, r7, lr}
	lcd_send_commnad(ST7735_RAMWR);
 80019ea:	202c      	movs	r0, #44	; 0x2c
 80019ec:	f7ff bfa4 	b.w	8001938 <lcd_send_commnad>

080019f0 <lcd_draw_pixel>:
{
 80019f0:	b538      	push	{r3, r4, r5, lr}
 80019f2:	4615      	mov	r5, r2
	if ((x >= width) || (y >= height)) return;
 80019f4:	0602      	lsls	r2, r0, #24
{
 80019f6:	4604      	mov	r4, r0
 80019f8:	460b      	mov	r3, r1
	if ((x >= width) || (y >= height)) return;
 80019fa:	d41f      	bmi.n	8001a3c <lcd_draw_pixel+0x4c>
 80019fc:	299f      	cmp	r1, #159	; 0x9f
 80019fe:	d81d      	bhi.n	8001a3c <lcd_draw_pixel+0x4c>
	lcd_setAddrWindow(x,y,x+1,y+1);
 8001a00:	3401      	adds	r4, #1
 8001a02:	3301      	adds	r3, #1
 8001a04:	b2db      	uxtb	r3, r3
 8001a06:	b2e2      	uxtb	r2, r4
 8001a08:	f7ff ffca 	bl	80019a0 <lcd_setAddrWindow>
	GPIO_WriteBit(GPIOA, GPIO_Pin_8, Bit_SET);
 8001a0c:	2201      	movs	r2, #1
 8001a0e:	f44f 7180 	mov.w	r1, #256	; 0x100
 8001a12:	480b      	ldr	r0, [pc, #44]	; (8001a40 <lcd_draw_pixel+0x50>)
 8001a14:	f7ff fd4a 	bl	80014ac <GPIO_WriteBit>
	GPIO_WriteBit(GPIOA, GPIO_Pin_4, Bit_RESET);
 8001a18:	2200      	movs	r2, #0
 8001a1a:	2110      	movs	r1, #16
 8001a1c:	4808      	ldr	r0, [pc, #32]	; (8001a40 <lcd_draw_pixel+0x50>)
 8001a1e:	f7ff fd45 	bl	80014ac <GPIO_WriteBit>
	lcd_spi_send(color >> 8);
 8001a22:	0a28      	lsrs	r0, r5, #8
 8001a24:	f7ff ff6c 	bl	8001900 <lcd_spi_send>
	lcd_spi_send(color);
 8001a28:	b2e8      	uxtb	r0, r5
 8001a2a:	f7ff ff69 	bl	8001900 <lcd_spi_send>
}
 8001a2e:	e8bd 4038 	ldmia.w	sp!, {r3, r4, r5, lr}
	GPIO_WriteBit(GPIOA, GPIO_Pin_4, Bit_SET);
 8001a32:	2201      	movs	r2, #1
 8001a34:	2110      	movs	r1, #16
 8001a36:	4802      	ldr	r0, [pc, #8]	; (8001a40 <lcd_draw_pixel+0x50>)
 8001a38:	f7ff bd38 	b.w	80014ac <GPIO_WriteBit>
}
 8001a3c:	bd38      	pop	{r3, r4, r5, pc}
 8001a3e:	bf00      	nop
 8001a40:	40010800 	.word	0x40010800

08001a44 <lcd_draw_fillrect>:
{
 8001a44:	e92d 43f8 	stmdb	sp!, {r3, r4, r5, r6, r7, r8, r9, lr}
 8001a48:	4614      	mov	r4, r2
 8001a4a:	461d      	mov	r5, r3
  lcd_setAddrWindow(x, y, x+w-1, y+h-1);
 8001a4c:	3a01      	subs	r2, #1
 8001a4e:	3b01      	subs	r3, #1
 8001a50:	440b      	add	r3, r1
 8001a52:	4402      	add	r2, r0
 8001a54:	b2db      	uxtb	r3, r3
 8001a56:	b2d2      	uxtb	r2, r2
{
 8001a58:	f8bd 6020 	ldrh.w	r6, [sp, #32]
  lcd_setAddrWindow(x, y, x+w-1, y+h-1);
 8001a5c:	f7ff ffa0 	bl	80019a0 <lcd_setAddrWindow>
  GPIO_WriteBit(GPIOA, GPIO_Pin_8, Bit_SET);
 8001a60:	2201      	movs	r2, #1
 8001a62:	f44f 7180 	mov.w	r1, #256	; 0x100
 8001a66:	4812      	ldr	r0, [pc, #72]	; (8001ab0 <lcd_draw_fillrect+0x6c>)
 8001a68:	f7ff fd20 	bl	80014ac <GPIO_WriteBit>
  GPIO_WriteBit(GPIOA, GPIO_Pin_4, Bit_RESET);
 8001a6c:	2200      	movs	r2, #0
 8001a6e:	2110      	movs	r1, #16
 8001a70:	480f      	ldr	r0, [pc, #60]	; (8001ab0 <lcd_draw_fillrect+0x6c>)
 8001a72:	f7ff fd1b 	bl	80014ac <GPIO_WriteBit>
  for (x=0; x < w; x++) {
 8001a76:	f04f 0800 	mov.w	r8, #0
      lcd_spi_send(color>>8 );
 8001a7a:	ea4f 2916 	mov.w	r9, r6, lsr #8
      lcd_spi_send(color);
 8001a7e:	b2f6      	uxtb	r6, r6
  for (x=0; x < w; x++) {
 8001a80:	45a0      	cmp	r8, r4
 8001a82:	d00d      	beq.n	8001aa0 <lcd_draw_fillrect+0x5c>
 8001a84:	2700      	movs	r7, #0
 8001a86:	e006      	b.n	8001a96 <lcd_draw_fillrect+0x52>
      lcd_spi_send(color>>8 );
 8001a88:	4648      	mov	r0, r9
 8001a8a:	f7ff ff39 	bl	8001900 <lcd_spi_send>
      lcd_spi_send(color);
 8001a8e:	4630      	mov	r0, r6
 8001a90:	f7ff ff36 	bl	8001900 <lcd_spi_send>
    for (y=0; y < h; y++) {
 8001a94:	3701      	adds	r7, #1
 8001a96:	42af      	cmp	r7, r5
 8001a98:	d1f6      	bne.n	8001a88 <lcd_draw_fillrect+0x44>
  for (x=0; x < w; x++) {
 8001a9a:	f108 0801 	add.w	r8, r8, #1
 8001a9e:	e7ef      	b.n	8001a80 <lcd_draw_fillrect+0x3c>
  GPIO_WriteBit(GPIOA, GPIO_Pin_4, Bit_SET);
 8001aa0:	2201      	movs	r2, #1
}
 8001aa2:	e8bd 43f8 	ldmia.w	sp!, {r3, r4, r5, r6, r7, r8, r9, lr}
  GPIO_WriteBit(GPIOA, GPIO_Pin_4, Bit_SET);
 8001aa6:	2110      	movs	r1, #16
 8001aa8:	4801      	ldr	r0, [pc, #4]	; (8001ab0 <lcd_draw_fillrect+0x6c>)
 8001aaa:	f7ff bcff 	b.w	80014ac <GPIO_WriteBit>
 8001aae:	bf00      	nop
 8001ab0:	40010800 	.word	0x40010800

08001ab4 <lcd_init>:
{
 8001ab4:	b570      	push	{r4, r5, r6, lr}
	if (lcd_initialized == 0)
 8001ab6:	4dca      	ldr	r5, [pc, #808]	; (8001de0 <lcd_init+0x32c>)
{
 8001ab8:	b088      	sub	sp, #32
	if (lcd_initialized == 0)
 8001aba:	78ac      	ldrb	r4, [r5, #2]
 8001abc:	2c00      	cmp	r4, #0
 8001abe:	f040 818d 	bne.w	8001ddc <lcd_init+0x328>
		RCC_APB2PeriphClockCmd(RCC_APB2Periph_GPIOA | RCC_APB2Periph_GPIOB , ENABLE);
 8001ac2:	2101      	movs	r1, #1
 8001ac4:	200c      	movs	r0, #12
 8001ac6:	f7ff fe01 	bl	80016cc <RCC_APB2PeriphClockCmd>
		GPIO_WriteBit(GPIOA, GPIO_Pin_0, Bit_SET);
 8001aca:	2201      	movs	r2, #1
 8001acc:	48c5      	ldr	r0, [pc, #788]	; (8001de4 <lcd_init+0x330>)
 8001ace:	4611      	mov	r1, r2
 8001ad0:	f7ff fcec 	bl	80014ac <GPIO_WriteBit>
		RCC_APB2PeriphClockCmd(RCC_APB2Periph_GPIOA , ENABLE);
 8001ad4:	2101      	movs	r1, #1
 8001ad6:	2004      	movs	r0, #4
 8001ad8:	f7ff fdf8 	bl	80016cc <RCC_APB2PeriphClockCmd>
		GPIO_InitStructure.GPIO_Pin = GPIO_Pin_0;
 8001adc:	4bc2      	ldr	r3, [pc, #776]	; (8001de8 <lcd_init+0x334>)
		GPIO_Init(GPIOA, &GPIO_InitStructure);
 8001ade:	48c1      	ldr	r0, [pc, #772]	; (8001de4 <lcd_init+0x330>)
 8001ae0:	a902      	add	r1, sp, #8
		GPIO_InitStructure.GPIO_Pin = GPIO_Pin_0;
 8001ae2:	9302      	str	r3, [sp, #8]
		GPIO_Init(GPIOA, &GPIO_InitStructure);
 8001ae4:	f7ff fc92 	bl	800140c <GPIO_Init>
		GPIO_InitStructure.GPIO_Pin = GPIO_Pin_5 ;
 8001ae8:	4bc0      	ldr	r3, [pc, #768]	; (8001dec <lcd_init+0x338>)
		GPIO_Init(GPIOA, &GPIO_InitStructure);
 8001aea:	48be      	ldr	r0, [pc, #760]	; (8001de4 <lcd_init+0x330>)
 8001aec:	a902      	add	r1, sp, #8
		GPIO_InitStructure.GPIO_Pin = GPIO_Pin_5 ;
 8001aee:	9302      	str	r3, [sp, #8]
		GPIO_Init(GPIOA, &GPIO_InitStructure);
 8001af0:	f7ff fc8c 	bl	800140c <GPIO_Init>
		GPIO_InitStructure.GPIO_Pin = GPIO_Pin_7;
 8001af4:	4bbe      	ldr	r3, [pc, #760]	; (8001df0 <lcd_init+0x33c>)
		GPIO_Init(GPIOA, &GPIO_InitStructure);
 8001af6:	48bb      	ldr	r0, [pc, #748]	; (8001de4 <lcd_init+0x330>)
 8001af8:	a902      	add	r1, sp, #8
		GPIO_InitStructure.GPIO_Pin = GPIO_Pin_7;
 8001afa:	9302      	str	r3, [sp, #8]
		GPIO_Init(GPIOA, &GPIO_InitStructure);
 8001afc:	f7ff fc86 	bl	800140c <GPIO_Init>
		GPIO_InitStructure.GPIO_Pin =  GPIO_Pin_8;
 8001b00:	4bbc      	ldr	r3, [pc, #752]	; (8001df4 <lcd_init+0x340>)
		GPIO_Init(GPIOA, &GPIO_InitStructure);
 8001b02:	48b8      	ldr	r0, [pc, #736]	; (8001de4 <lcd_init+0x330>)
		GPIO_InitStructure.GPIO_Pin =  GPIO_Pin_4;
 8001b04:	4ebc      	ldr	r6, [pc, #752]	; (8001df8 <lcd_init+0x344>)
		GPIO_Init(GPIOA, &GPIO_InitStructure);
 8001b06:	a902      	add	r1, sp, #8
		GPIO_InitStructure.GPIO_Pin =  GPIO_Pin_8;
 8001b08:	9302      	str	r3, [sp, #8]
		GPIO_Init(GPIOA, &GPIO_InitStructure);
 8001b0a:	f7ff fc7f 	bl	800140c <GPIO_Init>
		GPIO_Init(GPIOA, &GPIO_InitStructure);
 8001b0e:	48b5      	ldr	r0, [pc, #724]	; (8001de4 <lcd_init+0x330>)
 8001b10:	a902      	add	r1, sp, #8
		GPIO_InitStructure.GPIO_Pin =  GPIO_Pin_4;
 8001b12:	9602      	str	r6, [sp, #8]
		GPIO_Init(GPIOA, &GPIO_InitStructure);
 8001b14:	f7ff fc7a 	bl	800140c <GPIO_Init>
		GPIO_WriteBit(GPIOA, GPIO_Pin_4, Bit_SET);  /*ativar o SS*/
 8001b18:	2201      	movs	r2, #1
 8001b1a:	2110      	movs	r1, #16
 8001b1c:	48b1      	ldr	r0, [pc, #708]	; (8001de4 <lcd_init+0x330>)
 8001b1e:	f7ff fcc5 	bl	80014ac <GPIO_WriteBit>
		GPIO_PinRemapConfig ( GPIO_Remap_SWJ_NoJTRST, ENABLE ) ;
 8001b22:	2101      	movs	r1, #1
 8001b24:	48b5      	ldr	r0, [pc, #724]	; (8001dfc <lcd_init+0x348>)
 8001b26:	f7ff fcc7 	bl	80014b8 <GPIO_PinRemapConfig>
		GPIO_Init(GPIOB, &GPIO_InitStructure);
 8001b2a:	48b5      	ldr	r0, [pc, #724]	; (8001e00 <lcd_init+0x34c>)
 8001b2c:	a902      	add	r1, sp, #8
		GPIO_InitStructure.GPIO_Pin =  GPIO_Pin_4;
 8001b2e:	9602      	str	r6, [sp, #8]
		GPIO_Init(GPIOB, &GPIO_InitStructure);
 8001b30:	f7ff fc6c 	bl	800140c <GPIO_Init>
		RCC_APB2PeriphClockCmd(RCC_APB2Periph_SPI1, ENABLE);
 8001b34:	2101      	movs	r1, #1
 8001b36:	f44f 5080 	mov.w	r0, #4096	; 0x1000
 8001b3a:	f7ff fdc7 	bl	80016cc <RCC_APB2PeriphClockCmd>
		SPI_InitStructure.SPI_DataSize = SPI_DataSize_8b;
 8001b3e:	f04f 7282 	mov.w	r2, #17039360	; 0x1040000
 8001b42:	f44f 3300 	mov.w	r3, #131072	; 0x20000
 8001b46:	e9cd 2303 	strd	r2, r3, [sp, #12]
		SPI_InitStructure.SPI_CPHA = SPI_CPHA_2Edge;
 8001b4a:	4bae      	ldr	r3, [pc, #696]	; (8001e04 <lcd_init+0x350>)
		SPI_Init(SPI1, &SPI_InitStructure);
 8001b4c:	48ae      	ldr	r0, [pc, #696]	; (8001e08 <lcd_init+0x354>)
 8001b4e:	a903      	add	r1, sp, #12
		SPI_InitStructure.SPI_BaudRatePrescaler = SPI_BaudRatePrescaler_2;
 8001b50:	e9cd 3405 	strd	r3, r4, [sp, #20]
		SPI_Init(SPI1, &SPI_InitStructure);
 8001b54:	f7ff fdfe 	bl	8001754 <SPI_Init>
		SPI_Cmd(SPI1, ENABLE);
 8001b58:	2101      	movs	r1, #1
 8001b5a:	48ab      	ldr	r0, [pc, #684]	; (8001e08 <lcd_init+0x354>)
 8001b5c:	f7ff fe19 	bl	8001792 <SPI_Cmd>
		GPIO_WriteBit(GPIOA, GPIO_Pin_4, Bit_RESET);
 8001b60:	4622      	mov	r2, r4
 8001b62:	2110      	movs	r1, #16
 8001b64:	489f      	ldr	r0, [pc, #636]	; (8001de4 <lcd_init+0x330>)
 8001b66:	f7ff fca1 	bl	80014ac <GPIO_WriteBit>
		GPIO_WriteBit(GPIOB, GPIO_Pin_4, Bit_SET);
 8001b6a:	2201      	movs	r2, #1
 8001b6c:	2110      	movs	r1, #16
 8001b6e:	48a4      	ldr	r0, [pc, #656]	; (8001e00 <lcd_init+0x34c>)
 8001b70:	f7ff fc9c 	bl	80014ac <GPIO_WriteBit>
		lcd_delay_pool(500);
 8001b74:	f44f 70fa 	mov.w	r0, #500	; 0x1f4
 8001b78:	f7ff feb3 	bl	80018e2 <lcd_delay_pool>
		GPIO_WriteBit(GPIOB, GPIO_Pin_4, Bit_RESET);
 8001b7c:	4622      	mov	r2, r4
 8001b7e:	2110      	movs	r1, #16
 8001b80:	489f      	ldr	r0, [pc, #636]	; (8001e00 <lcd_init+0x34c>)
 8001b82:	f7ff fc93 	bl	80014ac <GPIO_WriteBit>
		lcd_delay_pool(500);
 8001b86:	f44f 70fa 	mov.w	r0, #500	; 0x1f4
 8001b8a:	f7ff feaa 	bl	80018e2 <lcd_delay_pool>
		GPIO_WriteBit(GPIOB, GPIO_Pin_4, Bit_SET);
 8001b8e:	2201      	movs	r2, #1
 8001b90:	2110      	movs	r1, #16
 8001b92:	489b      	ldr	r0, [pc, #620]	; (8001e00 <lcd_init+0x34c>)
 8001b94:	f7ff fc8a 	bl	80014ac <GPIO_WriteBit>
		lcd_delay_pool(500);
 8001b98:	f44f 70fa 	mov.w	r0, #500	; 0x1f4
 8001b9c:	f7ff fea1 	bl	80018e2 <lcd_delay_pool>
		lcd_send_commnad(ST7735_SWRESET); // software reset
 8001ba0:	2001      	movs	r0, #1
 8001ba2:	f7ff fec9 	bl	8001938 <lcd_send_commnad>
		lcd_delay_pool(150);
 8001ba6:	2096      	movs	r0, #150	; 0x96
 8001ba8:	f7ff fe9b 	bl	80018e2 <lcd_delay_pool>
		lcd_send_commnad(ST7735_SLPOUT);  // out of sleep mode
 8001bac:	2011      	movs	r0, #17
 8001bae:	f7ff fec3 	bl	8001938 <lcd_send_commnad>
		lcd_delay_pool(500);
 8001bb2:	f44f 70fa 	mov.w	r0, #500	; 0x1f4
 8001bb6:	f7ff fe94 	bl	80018e2 <lcd_delay_pool>
		lcd_send_commnad(ST7735_FRMCTR1);  // frame rate control - normal mode
 8001bba:	20b1      	movs	r0, #177	; 0xb1
 8001bbc:	f7ff febc 	bl	8001938 <lcd_send_commnad>
		lcd_send_data(0x01);  // frame rate = fosc / (1 x 2 + 40) * (LINE + 2C + 2D)
 8001bc0:	2001      	movs	r0, #1
 8001bc2:	f7ff fed3 	bl	800196c <lcd_send_data>
		lcd_send_data(0x2C);
 8001bc6:	202c      	movs	r0, #44	; 0x2c
 8001bc8:	f7ff fed0 	bl	800196c <lcd_send_data>
		lcd_send_data(0x2D);
 8001bcc:	202d      	movs	r0, #45	; 0x2d
 8001bce:	f7ff fecd 	bl	800196c <lcd_send_data>
		lcd_send_commnad(ST7735_FRMCTR2);  // frame rate control - idle mode
 8001bd2:	20b2      	movs	r0, #178	; 0xb2
 8001bd4:	f7ff feb0 	bl	8001938 <lcd_send_commnad>
		lcd_send_data(0x01);  // frame rate = fosc / (1 x 2 + 40) * (LINE + 2C + 2D)
 8001bd8:	2001      	movs	r0, #1
 8001bda:	f7ff fec7 	bl	800196c <lcd_send_data>
		lcd_send_data(0x2C);
 8001bde:	202c      	movs	r0, #44	; 0x2c
 8001be0:	f7ff fec4 	bl	800196c <lcd_send_data>
		lcd_send_data(0x2D);
 8001be4:	202d      	movs	r0, #45	; 0x2d
 8001be6:	f7ff fec1 	bl	800196c <lcd_send_data>
		lcd_send_commnad(ST7735_FRMCTR3);  // frame rate control - partial mode
 8001bea:	20b3      	movs	r0, #179	; 0xb3
 8001bec:	f7ff fea4 	bl	8001938 <lcd_send_commnad>
		lcd_send_data(0x01); // dot inversion mode
 8001bf0:	2001      	movs	r0, #1
 8001bf2:	f7ff febb 	bl	800196c <lcd_send_data>
		lcd_send_data(0x2C);
 8001bf6:	202c      	movs	r0, #44	; 0x2c
 8001bf8:	f7ff feb8 	bl	800196c <lcd_send_data>
		lcd_send_data(0x2D);
 8001bfc:	202d      	movs	r0, #45	; 0x2d
 8001bfe:	f7ff feb5 	bl	800196c <lcd_send_data>
		lcd_send_data(0x01); // line inversion mode
 8001c02:	2001      	movs	r0, #1
 8001c04:	f7ff feb2 	bl	800196c <lcd_send_data>
		lcd_send_data(0x2C);
 8001c08:	202c      	movs	r0, #44	; 0x2c
 8001c0a:	f7ff feaf 	bl	800196c <lcd_send_data>
		lcd_send_data(0x2D);
 8001c0e:	202d      	movs	r0, #45	; 0x2d
 8001c10:	f7ff feac 	bl	800196c <lcd_send_data>
		lcd_send_commnad(ST7735_INVCTR);  // display inversion control
 8001c14:	20b4      	movs	r0, #180	; 0xb4
 8001c16:	f7ff fe8f 	bl	8001938 <lcd_send_commnad>
		lcd_send_data(0x07);  // no inversion
 8001c1a:	2007      	movs	r0, #7
 8001c1c:	f7ff fea6 	bl	800196c <lcd_send_data>
		lcd_send_commnad(ST7735_PWCTR1);  // power control
 8001c20:	20c0      	movs	r0, #192	; 0xc0
 8001c22:	f7ff fe89 	bl	8001938 <lcd_send_commnad>
		lcd_send_data(0xA2);
 8001c26:	20a2      	movs	r0, #162	; 0xa2
 8001c28:	f7ff fea0 	bl	800196c <lcd_send_data>
		lcd_send_data(0x02);      // -4.6V
 8001c2c:	2002      	movs	r0, #2
 8001c2e:	f7ff fe9d 	bl	800196c <lcd_send_data>
		lcd_send_data(0x84);      // AUTO mode
 8001c32:	2084      	movs	r0, #132	; 0x84
 8001c34:	f7ff fe9a 	bl	800196c <lcd_send_data>
		lcd_send_commnad(ST7735_PWCTR2);  // power control
 8001c38:	20c1      	movs	r0, #193	; 0xc1
 8001c3a:	f7ff fe7d 	bl	8001938 <lcd_send_commnad>
		lcd_send_data(0xC5);      // VGH25 = 2.4C VGSEL = -10 VGH = 3 * AVDD
 8001c3e:	20c5      	movs	r0, #197	; 0xc5
 8001c40:	f7ff fe94 	bl	800196c <lcd_send_data>
		lcd_send_commnad(ST7735_PWCTR3);  // power control
 8001c44:	20c2      	movs	r0, #194	; 0xc2
 8001c46:	f7ff fe77 	bl	8001938 <lcd_send_commnad>
		lcd_send_data(0x0A);      // Opamp current small
 8001c4a:	200a      	movs	r0, #10
 8001c4c:	f7ff fe8e 	bl	800196c <lcd_send_data>
		lcd_send_data(0x00);      // Boost frequency
 8001c50:	4620      	mov	r0, r4
 8001c52:	f7ff fe8b 	bl	800196c <lcd_send_data>
		lcd_send_commnad(ST7735_PWCTR4);  // power control
 8001c56:	20c3      	movs	r0, #195	; 0xc3
 8001c58:	f7ff fe6e 	bl	8001938 <lcd_send_commnad>
		lcd_send_data(0x8A);      // BCLK/2, Opamp current small & Medium low
 8001c5c:	208a      	movs	r0, #138	; 0x8a
 8001c5e:	f7ff fe85 	bl	800196c <lcd_send_data>
		lcd_send_data(0x2A);
 8001c62:	202a      	movs	r0, #42	; 0x2a
 8001c64:	f7ff fe82 	bl	800196c <lcd_send_data>
		lcd_send_commnad(ST7735_PWCTR5);  // power control
 8001c68:	20c4      	movs	r0, #196	; 0xc4
 8001c6a:	f7ff fe65 	bl	8001938 <lcd_send_commnad>
		lcd_send_data(0x8A);
 8001c6e:	208a      	movs	r0, #138	; 0x8a
 8001c70:	f7ff fe7c 	bl	800196c <lcd_send_data>
		lcd_send_data(0xEE);
 8001c74:	20ee      	movs	r0, #238	; 0xee
 8001c76:	f7ff fe79 	bl	800196c <lcd_send_data>
		lcd_send_commnad(ST7735_VMCTR1);  // power control
 8001c7a:	20c5      	movs	r0, #197	; 0xc5
 8001c7c:	f7ff fe5c 	bl	8001938 <lcd_send_commnad>
		lcd_send_data(0x0E);
 8001c80:	200e      	movs	r0, #14
 8001c82:	f7ff fe73 	bl	800196c <lcd_send_data>
		lcd_send_commnad(ST7735_INVOFF);    // don't invert display
 8001c86:	2020      	movs	r0, #32
 8001c88:	f7ff fe56 	bl	8001938 <lcd_send_commnad>
		lcd_send_commnad(ST7735_MADCTL);  // memory access control (directions)
 8001c8c:	2036      	movs	r0, #54	; 0x36
 8001c8e:	f7ff fe53 	bl	8001938 <lcd_send_commnad>
		lcd_send_data(0xC0);  // row address/col address, bottom to top refresh
 8001c92:	20c0      	movs	r0, #192	; 0xc0
 8001c94:	f7ff fe6a 	bl	800196c <lcd_send_data>
		madctl = 0xC0;
 8001c98:	22c0      	movs	r2, #192	; 0xc0
 8001c9a:	4b5c      	ldr	r3, [pc, #368]	; (8001e0c <lcd_init+0x358>)
		lcd_send_commnad(ST7735_COLMOD);  // set color mode
 8001c9c:	203a      	movs	r0, #58	; 0x3a
		madctl = 0xC0;
 8001c9e:	701a      	strb	r2, [r3, #0]
		lcd_send_commnad(ST7735_COLMOD);  // set color mode
 8001ca0:	f7ff fe4a 	bl	8001938 <lcd_send_commnad>
		lcd_send_data(0x05);        // 16-bit color
 8001ca4:	2005      	movs	r0, #5
 8001ca6:	f7ff fe61 	bl	800196c <lcd_send_data>
		lcd_send_commnad(ST7735_CASET);  // column addr set
 8001caa:	202a      	movs	r0, #42	; 0x2a
 8001cac:	f7ff fe44 	bl	8001938 <lcd_send_commnad>
		lcd_send_data(0x00);
 8001cb0:	4620      	mov	r0, r4
 8001cb2:	f7ff fe5b 	bl	800196c <lcd_send_data>
		lcd_send_data(0x00);   // XSTART = 0
 8001cb6:	4620      	mov	r0, r4
 8001cb8:	f7ff fe58 	bl	800196c <lcd_send_data>
		lcd_send_data(0x00);
 8001cbc:	4620      	mov	r0, r4
 8001cbe:	f7ff fe55 	bl	800196c <lcd_send_data>
		lcd_send_data(0x7F);   // XEND = 127
 8001cc2:	207f      	movs	r0, #127	; 0x7f
 8001cc4:	f7ff fe52 	bl	800196c <lcd_send_data>
		lcd_send_commnad(ST7735_RASET);  // row addr set
 8001cc8:	202b      	movs	r0, #43	; 0x2b
 8001cca:	f7ff fe35 	bl	8001938 <lcd_send_commnad>
		lcd_send_data(0x00);
 8001cce:	4620      	mov	r0, r4
 8001cd0:	f7ff fe4c 	bl	800196c <lcd_send_data>
		lcd_send_data(0x00);    // XSTART = 0
 8001cd4:	4620      	mov	r0, r4
 8001cd6:	f7ff fe49 	bl	800196c <lcd_send_data>
		lcd_send_data(0x00);
 8001cda:	4620      	mov	r0, r4
 8001cdc:	f7ff fe46 	bl	800196c <lcd_send_data>
		lcd_send_data(0x9F);    // XEND = 159
 8001ce0:	209f      	movs	r0, #159	; 0x9f
 8001ce2:	f7ff fe43 	bl	800196c <lcd_send_data>
		lcd_send_commnad(ST7735_GMCTRP1);
 8001ce6:	20e0      	movs	r0, #224	; 0xe0
 8001ce8:	f7ff fe26 	bl	8001938 <lcd_send_commnad>
		lcd_send_data(0x0f);
 8001cec:	200f      	movs	r0, #15
 8001cee:	f7ff fe3d 	bl	800196c <lcd_send_data>
		lcd_send_data(0x1a);
 8001cf2:	201a      	movs	r0, #26
 8001cf4:	f7ff fe3a 	bl	800196c <lcd_send_data>
		lcd_send_data(0x0f);
 8001cf8:	200f      	movs	r0, #15
 8001cfa:	f7ff fe37 	bl	800196c <lcd_send_data>
		lcd_send_data(0x18);
 8001cfe:	2018      	movs	r0, #24
 8001d00:	f7ff fe34 	bl	800196c <lcd_send_data>
		lcd_send_data(0x2f);
 8001d04:	202f      	movs	r0, #47	; 0x2f
 8001d06:	f7ff fe31 	bl	800196c <lcd_send_data>
		lcd_send_data(0x28);
 8001d0a:	2028      	movs	r0, #40	; 0x28
 8001d0c:	f7ff fe2e 	bl	800196c <lcd_send_data>
		lcd_send_data(0x20);
 8001d10:	2020      	movs	r0, #32
 8001d12:	f7ff fe2b 	bl	800196c <lcd_send_data>
		lcd_send_data(0x22);
 8001d16:	2022      	movs	r0, #34	; 0x22
 8001d18:	f7ff fe28 	bl	800196c <lcd_send_data>
		lcd_send_data(0x1f);
 8001d1c:	201f      	movs	r0, #31
 8001d1e:	f7ff fe25 	bl	800196c <lcd_send_data>
		lcd_send_data(0x1b);
 8001d22:	201b      	movs	r0, #27
 8001d24:	f7ff fe22 	bl	800196c <lcd_send_data>
		lcd_send_data(0x23);
 8001d28:	2023      	movs	r0, #35	; 0x23
 8001d2a:	f7ff fe1f 	bl	800196c <lcd_send_data>
		lcd_send_data(0x37);
 8001d2e:	2037      	movs	r0, #55	; 0x37
 8001d30:	f7ff fe1c 	bl	800196c <lcd_send_data>
		lcd_send_data(0x00);
 8001d34:	4620      	mov	r0, r4
 8001d36:	f7ff fe19 	bl	800196c <lcd_send_data>
		lcd_send_data(0x07);
 8001d3a:	2007      	movs	r0, #7
 8001d3c:	f7ff fe16 	bl	800196c <lcd_send_data>
		lcd_send_data(0x02);
 8001d40:	2002      	movs	r0, #2
 8001d42:	f7ff fe13 	bl	800196c <lcd_send_data>
		lcd_send_data(0x10);
 8001d46:	2010      	movs	r0, #16
 8001d48:	f7ff fe10 	bl	800196c <lcd_send_data>
		lcd_send_commnad(ST7735_GMCTRN1);
 8001d4c:	20e1      	movs	r0, #225	; 0xe1
 8001d4e:	f7ff fdf3 	bl	8001938 <lcd_send_commnad>
		lcd_send_data(0x0f);
 8001d52:	200f      	movs	r0, #15
 8001d54:	f7ff fe0a 	bl	800196c <lcd_send_data>
		lcd_send_data(0x1b);
 8001d58:	201b      	movs	r0, #27
 8001d5a:	f7ff fe07 	bl	800196c <lcd_send_data>
		lcd_send_data(0x0f);
 8001d5e:	200f      	movs	r0, #15
 8001d60:	f7ff fe04 	bl	800196c <lcd_send_data>
		lcd_send_data(0x17);
 8001d64:	2017      	movs	r0, #23
 8001d66:	f7ff fe01 	bl	800196c <lcd_send_data>
		lcd_send_data(0x33);
 8001d6a:	2033      	movs	r0, #51	; 0x33
 8001d6c:	f7ff fdfe 	bl	800196c <lcd_send_data>
		lcd_send_data(0x2c);
 8001d70:	202c      	movs	r0, #44	; 0x2c
 8001d72:	f7ff fdfb 	bl	800196c <lcd_send_data>
		lcd_send_data(0x29);
 8001d76:	2029      	movs	r0, #41	; 0x29
 8001d78:	f7ff fdf8 	bl	800196c <lcd_send_data>
		lcd_send_data(0x2e);
 8001d7c:	202e      	movs	r0, #46	; 0x2e
 8001d7e:	f7ff fdf5 	bl	800196c <lcd_send_data>
		lcd_send_data(0x30);
 8001d82:	2030      	movs	r0, #48	; 0x30
 8001d84:	f7ff fdf2 	bl	800196c <lcd_send_data>
		lcd_send_data(0x30);
 8001d88:	2030      	movs	r0, #48	; 0x30
 8001d8a:	f7ff fdef 	bl	800196c <lcd_send_data>
		lcd_send_data(0x39);
 8001d8e:	2039      	movs	r0, #57	; 0x39
 8001d90:	f7ff fdec 	bl	800196c <lcd_send_data>
		lcd_send_data(0x3f);
 8001d94:	203f      	movs	r0, #63	; 0x3f
 8001d96:	f7ff fde9 	bl	800196c <lcd_send_data>
		lcd_send_data(0x00);
 8001d9a:	4620      	mov	r0, r4
 8001d9c:	f7ff fde6 	bl	800196c <lcd_send_data>
		lcd_send_data(0x07);
 8001da0:	2007      	movs	r0, #7
 8001da2:	f7ff fde3 	bl	800196c <lcd_send_data>
		lcd_send_data(0x03);
 8001da6:	2003      	movs	r0, #3
 8001da8:	f7ff fde0 	bl	800196c <lcd_send_data>
		lcd_send_data(0x10);
 8001dac:	2010      	movs	r0, #16
 8001dae:	f7ff fddd 	bl	800196c <lcd_send_data>
		lcd_send_commnad(ST7735_DISPON);
 8001db2:	2029      	movs	r0, #41	; 0x29
 8001db4:	f7ff fdc0 	bl	8001938 <lcd_send_commnad>
		lcd_delay_pool(100);
 8001db8:	2064      	movs	r0, #100	; 0x64
 8001dba:	f7ff fd92 	bl	80018e2 <lcd_delay_pool>
		lcd_send_commnad(ST7735_NORON);  // normal display on
 8001dbe:	2013      	movs	r0, #19
 8001dc0:	f7ff fdba 	bl	8001938 <lcd_send_commnad>
		lcd_delay_pool(10);
 8001dc4:	200a      	movs	r0, #10
 8001dc6:	f7ff fd8c 	bl	80018e2 <lcd_delay_pool>
		lcd_draw_fillrect(0, 0 , LCD_WIDTH, LCD_HEIGHT, 0x0000) ;
 8001dca:	23a0      	movs	r3, #160	; 0xa0
 8001dcc:	2280      	movs	r2, #128	; 0x80
 8001dce:	4621      	mov	r1, r4
 8001dd0:	4620      	mov	r0, r4
 8001dd2:	9400      	str	r4, [sp, #0]
 8001dd4:	f7ff fe36 	bl	8001a44 <lcd_draw_fillrect>
		lcd_initialized=1;
 8001dd8:	2301      	movs	r3, #1
 8001dda:	70ab      	strb	r3, [r5, #2]
}
 8001ddc:	b008      	add	sp, #32
 8001dde:	bd70      	pop	{r4, r5, r6, pc}
 8001de0:	200045c8 	.word	0x200045c8
 8001de4:	40010800 	.word	0x40010800
 8001de8:	10030001 	.word	0x10030001
 8001dec:	18030020 	.word	0x18030020
 8001df0:	18030080 	.word	0x18030080
 8001df4:	10030100 	.word	0x10030100
 8001df8:	10030010 	.word	0x10030010
 8001dfc:	00300100 	.word	0x00300100
 8001e00:	40010c00 	.word	0x40010c00
 8001e04:	02000001 	.word	0x02000001
 8001e08:	40013000 	.word	0x40013000
 8001e0c:	20004608 	.word	0x20004608

08001e10 <lcd_draw_line>:
 {
 8001e10:	e92d 4ff7 	stmdb	sp!, {r0, r1, r2, r4, r5, r6, r7, r8, r9, sl, fp, lr}
 8001e14:	4604      	mov	r4, r0
 8001e16:	4617      	mov	r7, r2
 8001e18:	461e      	mov	r6, r3
 8001e1a:	460d      	mov	r5, r1
 8001e1c:	f8bd 8030 	ldrh.w	r8, [sp, #48]	; 0x30
	 lcd_setAddrWindow(x1, y1, x2, y2);
 8001e20:	f7ff fdbe 	bl	80019a0 <lcd_setAddrWindow>
	 GPIO_WriteBit(GPIOA, GPIO_Pin_8, Bit_SET);
 8001e24:	2201      	movs	r2, #1
 8001e26:	f44f 7180 	mov.w	r1, #256	; 0x100
 8001e2a:	483d      	ldr	r0, [pc, #244]	; (8001f20 <lcd_draw_line+0x110>)
 8001e2c:	f7ff fb3e 	bl	80014ac <GPIO_WriteBit>
	 GPIO_WriteBit(GPIOA, GPIO_Pin_4, Bit_RESET);
 8001e30:	2200      	movs	r2, #0
 8001e32:	2110      	movs	r1, #16
 8001e34:	483a      	ldr	r0, [pc, #232]	; (8001f20 <lcd_draw_line+0x110>)
 8001e36:	f7ff fb39 	bl	80014ac <GPIO_WriteBit>
	 if ( x1==x2 )  //Vertical Line
 8001e3a:	42bc      	cmp	r4, r7
 8001e3c:	d111      	bne.n	8001e62 <lcd_draw_line+0x52>
		 if ( y1 > y2 ) //We assume y2>y1 and invert if not
 8001e3e:	42b5      	cmp	r5, r6
 8001e40:	bf82      	ittt	hi
 8001e42:	462b      	movhi	r3, r5
 8001e44:	4635      	movhi	r5, r6
 8001e46:	461e      	movhi	r6, r3
		 lcd_draw_fillrect( x1, y1, 1, y2-y1+1, color );
 8001e48:	2201      	movs	r2, #1
 8001e4a:	1c73      	adds	r3, r6, #1
 8001e4c:	1b5b      	subs	r3, r3, r5
 8001e4e:	f8cd 8030 	str.w	r8, [sp, #48]	; 0x30
 8001e52:	b2db      	uxtb	r3, r3
		 lcd_draw_fillrect( x1, y1, x2-x1+1, 1, color );
 8001e54:	4629      	mov	r1, r5
 8001e56:	4620      	mov	r0, r4
 }
 8001e58:	b003      	add	sp, #12
 8001e5a:	e8bd 4ff0 	ldmia.w	sp!, {r4, r5, r6, r7, r8, r9, sl, fp, lr}
		 lcd_draw_fillrect( x1, y1, x2-x1+1, 1, color );
 8001e5e:	f7ff bdf1 	b.w	8001a44 <lcd_draw_fillrect>
	 else if ( y1==y2 )  //Horizontal Line
 8001e62:	42b5      	cmp	r5, r6
 8001e64:	d10b      	bne.n	8001e7e <lcd_draw_line+0x6e>
		 if ( x1 > x2 ) //We assume x2>x1 and we swap them if not
 8001e66:	42bc      	cmp	r4, r7
 8001e68:	bf82      	ittt	hi
 8001e6a:	4623      	movhi	r3, r4
 8001e6c:	463c      	movhi	r4, r7
 8001e6e:	461f      	movhi	r7, r3
		 lcd_draw_fillrect( x1, y1, x2-x1+1, 1, color );
 8001e70:	1c7a      	adds	r2, r7, #1
 8001e72:	1b12      	subs	r2, r2, r4
 8001e74:	2301      	movs	r3, #1
 8001e76:	f8cd 8030 	str.w	r8, [sp, #48]	; 0x30
 8001e7a:	b2d2      	uxtb	r2, r2
 8001e7c:	e7ea      	b.n	8001e54 <lcd_draw_line+0x44>
	 dx=x2-x1;      /* the horizontal distance of the line */
 8001e7e:	1b3f      	subs	r7, r7, r4
	 dy=y2-y1;      /* the vertical distance of the line */
 8001e80:	1b76      	subs	r6, r6, r5
	 dxabs=abs(dx);
 8001e82:	ea87 7ae7 	eor.w	sl, r7, r7, asr #31
	 dyabs=abs(dy);
 8001e86:	ea86 79e6 	eor.w	r9, r6, r6, asr #31
	 sdx=sgn(dx);
 8001e8a:	2f00      	cmp	r7, #0
	 dxabs=abs(dx);
 8001e8c:	ebaa 7ae7 	sub.w	sl, sl, r7, asr #31
	 dyabs=abs(dy);
 8001e90:	eba9 79e6 	sub.w	r9, r9, r6, asr #31
	 sdx=sgn(dx);
 8001e94:	bfb4      	ite	lt
 8001e96:	f04f 37ff 	movlt.w	r7, #4294967295
 8001e9a:	2701      	movge	r7, #1
	 sdy=sgn(dy);
 8001e9c:	2e00      	cmp	r6, #0
 8001e9e:	bfb4      	ite	lt
 8001ea0:	f04f 36ff 	movlt.w	r6, #4294967295
 8001ea4:	2601      	movge	r6, #1
	 if (dxabs>=dyabs) /* the line is more horizontal than vertical */
 8001ea6:	45ca      	cmp	sl, r9
	 dx=x2-x1;      /* the horizontal distance of the line */
 8001ea8:	46a3      	mov	fp, r4
	 dy=y2-y1;      /* the vertical distance of the line */
 8001eaa:	462b      	mov	r3, r5
	 if (dxabs>=dyabs) /* the line is more horizontal than vertical */
 8001eac:	db20      	blt.n	8001ef0 <lcd_draw_line+0xe0>
		 for(i=0;i<dxabs;i++)
 8001eae:	f04f 0b00 	mov.w	fp, #0
	 y=dxabs>>1;
 8001eb2:	ea4f 056a 	mov.w	r5, sl, asr #1
 8001eb6:	443c      	add	r4, r7
		 for(i=0;i<dxabs;i++)
 8001eb8:	45d3      	cmp	fp, sl
 8001eba:	d107      	bne.n	8001ecc <lcd_draw_line+0xbc>
	 GPIO_WriteBit(GPIOA, GPIO_Pin_4, Bit_SET);
 8001ebc:	2201      	movs	r2, #1
 8001ebe:	2110      	movs	r1, #16
 8001ec0:	4817      	ldr	r0, [pc, #92]	; (8001f20 <lcd_draw_line+0x110>)
 }
 8001ec2:	b003      	add	sp, #12
 8001ec4:	e8bd 4ff0 	ldmia.w	sp!, {r4, r5, r6, r7, r8, r9, sl, fp, lr}
	 GPIO_WriteBit(GPIOA, GPIO_Pin_4, Bit_SET);
 8001ec8:	f7ff baf0 	b.w	80014ac <GPIO_WriteBit>
			 y+=dyabs;
 8001ecc:	444d      	add	r5, r9
			 if (y>=dxabs)
 8001ece:	45aa      	cmp	sl, r5
				 py+=sdy;
 8001ed0:	bfd8      	it	le
 8001ed2:	199b      	addle	r3, r3, r6
			 lcd_draw_pixel(px,py,color);
 8001ed4:	b2d9      	uxtb	r1, r3
 8001ed6:	b2e0      	uxtb	r0, r4
 8001ed8:	4642      	mov	r2, r8
 8001eda:	9301      	str	r3, [sp, #4]
				 y-=dxabs;
 8001edc:	bfd8      	it	le
 8001ede:	eba5 050a 	suble.w	r5, r5, sl
		 for(i=0;i<dxabs;i++)
 8001ee2:	f10b 0b01 	add.w	fp, fp, #1
			 lcd_draw_pixel(px,py,color);
 8001ee6:	f7ff fd83 	bl	80019f0 <lcd_draw_pixel>
		 for(i=0;i<dxabs;i++)
 8001eea:	443c      	add	r4, r7
 8001eec:	9b01      	ldr	r3, [sp, #4]
 8001eee:	e7e3      	b.n	8001eb8 <lcd_draw_line+0xa8>
		 for(i=0;i<dyabs;i++)
 8001ef0:	2300      	movs	r3, #0
	 x=dyabs>>1;
 8001ef2:	ea4f 0469 	mov.w	r4, r9, asr #1
 8001ef6:	4435      	add	r5, r6
			 x+=dxabs;
 8001ef8:	4454      	add	r4, sl
			 if (x>=dyabs)
 8001efa:	45a1      	cmp	r9, r4
				 px+=sdx;
 8001efc:	bfd8      	it	le
 8001efe:	44bb      	addle	fp, r7
			 lcd_draw_pixel(px,py,color);
 8001f00:	b2e9      	uxtb	r1, r5
 8001f02:	4642      	mov	r2, r8
 8001f04:	fa5f f08b 	uxtb.w	r0, fp
				 x-=dyabs;
 8001f08:	bfd8      	it	le
 8001f0a:	eba4 0409 	suble.w	r4, r4, r9
				 px+=sdx;
 8001f0e:	9301      	str	r3, [sp, #4]
			 lcd_draw_pixel(px,py,color);
 8001f10:	f7ff fd6e 	bl	80019f0 <lcd_draw_pixel>
		 for(i=0;i<dyabs;i++)
 8001f14:	9b01      	ldr	r3, [sp, #4]
 8001f16:	4435      	add	r5, r6
 8001f18:	3301      	adds	r3, #1
 8001f1a:	4599      	cmp	r9, r3
 8001f1c:	d1ec      	bne.n	8001ef8 <lcd_draw_line+0xe8>
 8001f1e:	e7cd      	b.n	8001ebc <lcd_draw_line+0xac>
 8001f20:	40010800 	.word	0x40010800

08001f24 <lcd_draw_pixelFromChar>:

void lcd_draw_pixelFromChar(uint8_t x, uint8_t y, uint16_t color)
{
 8001f24:	b538      	push	{r3, r4, r5, lr}
 8001f26:	4614      	mov	r4, r2
	//if ((x >= width) || (y >= height)) return;
	lcd_setAddrWindow(x,y,x+1,y+1);

	GPIO_WriteBit(GPIOA, GPIO_Pin_8, Bit_SET);
 8001f28:	4d0f      	ldr	r5, [pc, #60]	; (8001f68 <lcd_draw_pixelFromChar+0x44>)
	lcd_setAddrWindow(x,y,x+1,y+1);
 8001f2a:	1c4b      	adds	r3, r1, #1
 8001f2c:	1c42      	adds	r2, r0, #1
 8001f2e:	b2db      	uxtb	r3, r3
 8001f30:	b2d2      	uxtb	r2, r2
 8001f32:	f7ff fd35 	bl	80019a0 <lcd_setAddrWindow>
	GPIO_WriteBit(GPIOA, GPIO_Pin_8, Bit_SET);
 8001f36:	4628      	mov	r0, r5
 8001f38:	2201      	movs	r2, #1
 8001f3a:	f44f 7180 	mov.w	r1, #256	; 0x100
 8001f3e:	f7ff fab5 	bl	80014ac <GPIO_WriteBit>
	GPIO_WriteBit(GPIOA, GPIO_Pin_4, Bit_RESET);
 8001f42:	2200      	movs	r2, #0
 8001f44:	2110      	movs	r1, #16
 8001f46:	4628      	mov	r0, r5
 8001f48:	f7ff fab0 	bl	80014ac <GPIO_WriteBit>

	lcd_spi_send(color >> 8);
 8001f4c:	0a20      	lsrs	r0, r4, #8
 8001f4e:	f7ff fcd7 	bl	8001900 <lcd_spi_send>
	lcd_spi_send(color);
 8001f52:	b2e0      	uxtb	r0, r4
 8001f54:	f7ff fcd4 	bl	8001900 <lcd_spi_send>

	GPIO_WriteBit(GPIOA, GPIO_Pin_4, Bit_SET);
 8001f58:	4628      	mov	r0, r5

}
 8001f5a:	e8bd 4038 	ldmia.w	sp!, {r3, r4, r5, lr}
	GPIO_WriteBit(GPIOA, GPIO_Pin_4, Bit_SET);
 8001f5e:	2201      	movs	r2, #1
 8001f60:	2110      	movs	r1, #16
 8001f62:	f7ff baa3 	b.w	80014ac <GPIO_WriteBit>
 8001f66:	bf00      	nop
 8001f68:	40010800 	.word	0x40010800

08001f6c <lcd_draw_char>:

void lcd_draw_char(uint8_t x, uint8_t y, unsigned char c, uint16_t color, uint8_t size)
{
 8001f6c:	e92d 4ff0 	stmdb	sp!, {r4, r5, r6, r7, r8, r9, sl, fp, lr}
 8001f70:	4604      	mov	r4, r0

	//lcd_setAddrWindow(x,y,x+10,y+16);

	 for(int8_t i=0; i<6; i++ ) {
	      uint8_t line;
	      if(i < 5) line = (uint8_t) font[(c*5)+i];
 8001f72:	4606      	mov	r6, r0
 8001f74:	f04f 0800 	mov.w	r8, #0
{
 8001f78:	4689      	mov	r9, r1
	      if(i < 5) line = (uint8_t) font[(c*5)+i];
 8001f7a:	4925      	ldr	r1, [pc, #148]	; (8002010 <lcd_draw_char+0xa4>)
{
 8001f7c:	b085      	sub	sp, #20
	      if(i < 5) line = (uint8_t) font[(c*5)+i];
 8001f7e:	eb02 0282 	add.w	r2, r2, r2, lsl #2
{
 8001f82:	9302      	str	r3, [sp, #8]
 8001f84:	f89d a038 	ldrb.w	sl, [sp, #56]	; 0x38
	      if(i < 5) line = (uint8_t) font[(c*5)+i];
 8001f88:	188b      	adds	r3, r1, r2
 8001f8a:	9303      	str	r3, [sp, #12]
 8001f8c:	f1b8 0f05 	cmp.w	r8, #5
	      else      line = 0x0;
 8001f90:	bf08      	it	eq
 8001f92:	f04f 0b00 	moveq.w	fp, #0
 8001f96:	464f      	mov	r7, r9
 8001f98:	f04f 0500 	mov.w	r5, #0
	      if(i < 5) line = (uint8_t) font[(c*5)+i];
 8001f9c:	bf1c      	itt	ne
 8001f9e:	9b03      	ldrne	r3, [sp, #12]
 8001fa0:	f813 b008 	ldrbne.w	fp, [r3, r8]
	      for(int8_t j=0; j<8; j++, line >>= 1) {
	        if(line & 0x1) {
 8001fa4:	f01b 0f01 	tst.w	fp, #1
 8001fa8:	d027      	beq.n	8001ffa <lcd_draw_char+0x8e>
	          if(size == 1) lcd_draw_pixelFromChar(x+i, y+j, color);
 8001faa:	f1ba 0f01 	cmp.w	sl, #1
 8001fae:	d11b      	bne.n	8001fe8 <lcd_draw_char+0x7c>
 8001fb0:	9a02      	ldr	r2, [sp, #8]
 8001fb2:	eb09 0105 	add.w	r1, r9, r5
	          else          lcd_draw_fillrect(x+i*size, y+j*size, size, size, color);
	        } else /*if(0x0000 != color)*/ {
	          if(size == 1) lcd_draw_pixelFromChar(x+i, y+j, background_color);
 8001fb6:	4630      	mov	r0, r6
 8001fb8:	b2c9      	uxtb	r1, r1
 8001fba:	f7ff ffb3 	bl	8001f24 <lcd_draw_pixelFromChar>
	      for(int8_t j=0; j<8; j++, line >>= 1) {
 8001fbe:	3501      	adds	r5, #1
 8001fc0:	b2ea      	uxtb	r2, r5
 8001fc2:	4457      	add	r7, sl
 8001fc4:	2a08      	cmp	r2, #8
 8001fc6:	b26d      	sxtb	r5, r5
 8001fc8:	ea4f 0b5b 	mov.w	fp, fp, lsr #1
 8001fcc:	b2ff      	uxtb	r7, r7
 8001fce:	d1e9      	bne.n	8001fa4 <lcd_draw_char+0x38>
	 for(int8_t i=0; i<6; i++ ) {
 8001fd0:	f108 0801 	add.w	r8, r8, #1
 8001fd4:	4454      	add	r4, sl
 8001fd6:	3601      	adds	r6, #1
 8001fd8:	f1b8 0f06 	cmp.w	r8, #6
 8001fdc:	b2e4      	uxtb	r4, r4
 8001fde:	b2f6      	uxtb	r6, r6
 8001fe0:	d1d4      	bne.n	8001f8c <lcd_draw_char+0x20>
	          else          lcd_draw_fillrect(x+i*size, y+j*size, size, size, background_color);
	        }
	      }
	}
}
 8001fe2:	b005      	add	sp, #20
 8001fe4:	e8bd 8ff0 	ldmia.w	sp!, {r4, r5, r6, r7, r8, r9, sl, fp, pc}
	          else          lcd_draw_fillrect(x+i*size, y+j*size, size, size, color);
 8001fe8:	9b02      	ldr	r3, [sp, #8]
 8001fea:	9300      	str	r3, [sp, #0]
	          else          lcd_draw_fillrect(x+i*size, y+j*size, size, size, background_color);
 8001fec:	4653      	mov	r3, sl
 8001fee:	4652      	mov	r2, sl
 8001ff0:	4639      	mov	r1, r7
 8001ff2:	4620      	mov	r0, r4
 8001ff4:	f7ff fd26 	bl	8001a44 <lcd_draw_fillrect>
 8001ff8:	e7e1      	b.n	8001fbe <lcd_draw_char+0x52>
	          if(size == 1) lcd_draw_pixelFromChar(x+i, y+j, background_color);
 8001ffa:	4b06      	ldr	r3, [pc, #24]	; (8002014 <lcd_draw_char+0xa8>)
 8001ffc:	f1ba 0f01 	cmp.w	sl, #1
 8002000:	881a      	ldrh	r2, [r3, #0]
 8002002:	d102      	bne.n	800200a <lcd_draw_char+0x9e>
 8002004:	eb09 0105 	add.w	r1, r9, r5
 8002008:	e7d5      	b.n	8001fb6 <lcd_draw_char+0x4a>
	          else          lcd_draw_fillrect(x+i*size, y+j*size, size, size, background_color);
 800200a:	9200      	str	r2, [sp, #0]
 800200c:	e7ee      	b.n	8001fec <lcd_draw_char+0x80>
 800200e:	bf00      	nop
 8002010:	08003560 	.word	0x08003560
 8002014:	200045c8 	.word	0x200045c8

08002018 <lcd_draw_string>:
{
 8002018:	e92d 43f7 	stmdb	sp!, {r0, r1, r2, r4, r5, r6, r7, r8, r9, lr}
 800201c:	4604      	mov	r4, r0
 800201e:	460d      	mov	r5, r1
 8002020:	4698      	mov	r8, r3
 8002022:	f89d 9028 	ldrb.w	r9, [sp, #40]	; 0x28
 8002026:	1e57      	subs	r7, r2, #1
		x += size*6;
 8002028:	eb09 0649 	add.w	r6, r9, r9, lsl #1
 800202c:	0076      	lsls	r6, r6, #1
 800202e:	b2f6      	uxtb	r6, r6
	while (c[0] != 0)
 8002030:	f817 2f01 	ldrb.w	r2, [r7, #1]!
 8002034:	b912      	cbnz	r2, 800203c <lcd_draw_string+0x24>
}
 8002036:	b003      	add	sp, #12
 8002038:	e8bd 83f0 	ldmia.w	sp!, {r4, r5, r6, r7, r8, r9, pc}
		lcd_draw_char(x, y, c[0], color, size);
 800203c:	4620      	mov	r0, r4
		x += size*6;
 800203e:	4434      	add	r4, r6
		lcd_draw_char(x, y, c[0], color, size);
 8002040:	4629      	mov	r1, r5
		x += size*6;
 8002042:	b2e4      	uxtb	r4, r4
		lcd_draw_char(x, y, c[0], color, size);
 8002044:	4643      	mov	r3, r8
 8002046:	f8cd 9000 	str.w	r9, [sp]
 800204a:	f7ff ff8f 	bl	8001f6c <lcd_draw_char>
		if (x + 5 >= width)
 800204e:	2c7a      	cmp	r4, #122	; 0x7a
			y += 10;
 8002050:	bf82      	ittt	hi
 8002052:	350a      	addhi	r5, #10
			x = 0;
 8002054:	2400      	movhi	r4, #0
			y += 10;
 8002056:	b2ed      	uxtbhi	r5, r5
			x = 0;
 8002058:	e7ea      	b.n	8002030 <lcd_draw_string+0x18>

0800205a <lcd_draw_circle>:




void lcd_draw_circle(int16_t x0, int16_t y0, int16_t r, uint16_t color)
{
 800205a:	e92d 4ff0 	stmdb	sp!, {r4, r5, r6, r7, r8, r9, sl, fp, lr}
 800205e:	469a      	mov	sl, r3
  int16_t f = 1 - r;
 8002060:	b293      	uxth	r3, r2
  int16_t ddF_x = 1;
  int16_t ddF_y = -2 * r;
  int16_t x = 0;
  int16_t y = r;

  lcd_draw_pixel(x0 , y0+r, color);
 8002062:	b2d4      	uxtb	r4, r2
 8002064:	fa5f f881 	uxtb.w	r8, r1
  int16_t f = 1 - r;
 8002068:	f1c3 0501 	rsb	r5, r3, #1
  int16_t ddF_y = -2 * r;
 800206c:	ebc3 33c3 	rsb	r3, r3, r3, lsl #15
  lcd_draw_pixel(x0 , y0+r, color);
 8002070:	b2c7      	uxtb	r7, r0
  int16_t ddF_y = -2 * r;
 8002072:	005b      	lsls	r3, r3, #1
  lcd_draw_pixel(x0 , y0+r, color);
 8002074:	eb08 0104 	add.w	r1, r8, r4
{
 8002078:	b085      	sub	sp, #20
  int16_t ddF_y = -2 * r;
 800207a:	b21b      	sxth	r3, r3
  lcd_draw_pixel(x0 , y0+r, color);
 800207c:	4638      	mov	r0, r7
 800207e:	b2c9      	uxtb	r1, r1
{
 8002080:	4616      	mov	r6, r2
  lcd_draw_pixel(x0 , y0+r, color);
 8002082:	4652      	mov	r2, sl
  int16_t ddF_y = -2 * r;
 8002084:	9301      	str	r3, [sp, #4]
  lcd_draw_pixel(x0 , y0+r, color);
 8002086:	f7ff fcb3 	bl	80019f0 <lcd_draw_pixel>
  lcd_draw_pixel(x0 , y0-r, color);
 800208a:	eba8 0104 	sub.w	r1, r8, r4
 800208e:	4652      	mov	r2, sl
 8002090:	4638      	mov	r0, r7
 8002092:	b2c9      	uxtb	r1, r1
 8002094:	f7ff fcac 	bl	80019f0 <lcd_draw_pixel>
  lcd_draw_pixel(x0+r, y0 , color);
 8002098:	1938      	adds	r0, r7, r4
 800209a:	4652      	mov	r2, sl
 800209c:	4641      	mov	r1, r8
 800209e:	b2c0      	uxtb	r0, r0
 80020a0:	f7ff fca6 	bl	80019f0 <lcd_draw_pixel>
  lcd_draw_pixel(x0-r, y0 , color);
 80020a4:	1b38      	subs	r0, r7, r4
 80020a6:	4652      	mov	r2, sl
 80020a8:	4641      	mov	r1, r8
 80020aa:	b2c0      	uxtb	r0, r0
 80020ac:	f7ff fca0 	bl	80019f0 <lcd_draw_pixel>
  int16_t x = 0;
 80020b0:	2300      	movs	r3, #0
  int16_t f = 1 - r;
 80020b2:	b22d      	sxth	r5, r5
  int16_t x = 0;
 80020b4:	9300      	str	r3, [sp, #0]

  while (x<y) {
 80020b6:	9b00      	ldr	r3, [sp, #0]
 80020b8:	42b3      	cmp	r3, r6
 80020ba:	db02      	blt.n	80020c2 <lcd_draw_circle+0x68>
    lcd_draw_pixel(x0 + y, y0 + x, color);
    lcd_draw_pixel(x0 - y, y0 + x, color);
    lcd_draw_pixel(x0 + y, y0 - x, color);
    lcd_draw_pixel(x0 - y, y0 - x, color);
  }
}
 80020bc:	b005      	add	sp, #20
 80020be:	e8bd 8ff0 	ldmia.w	sp!, {r4, r5, r6, r7, r8, r9, sl, fp, pc}
    if (f >= 0) {
 80020c2:	2d00      	cmp	r5, #0
 80020c4:	db07      	blt.n	80020d6 <lcd_draw_circle+0x7c>
      ddF_y += 2;
 80020c6:	9b01      	ldr	r3, [sp, #4]
      y--;
 80020c8:	3e01      	subs	r6, #1
      ddF_y += 2;
 80020ca:	3302      	adds	r3, #2
 80020cc:	b21a      	sxth	r2, r3
      f += ddF_y;
 80020ce:	441d      	add	r5, r3
      y--;
 80020d0:	b236      	sxth	r6, r6
      ddF_y += 2;
 80020d2:	9201      	str	r2, [sp, #4]
      f += ddF_y;
 80020d4:	b22d      	sxth	r5, r5
    x++;
 80020d6:	9b00      	ldr	r3, [sp, #0]
    lcd_draw_pixel(x0 + x, y0 + y, color);
 80020d8:	fa5f f986 	uxtb.w	r9, r6
 80020dc:	3301      	adds	r3, #1
 80020de:	b29c      	uxth	r4, r3
    ddF_x += 2;
 80020e0:	eb05 0544 	add.w	r5, r5, r4, lsl #1
 80020e4:	b21b      	sxth	r3, r3
 80020e6:	b2e4      	uxtb	r4, r4
 80020e8:	9300      	str	r3, [sp, #0]
    lcd_draw_pixel(x0 + x, y0 + y, color);
 80020ea:	193b      	adds	r3, r7, r4
 80020ec:	b2db      	uxtb	r3, r3
 80020ee:	eb08 0109 	add.w	r1, r8, r9
    lcd_draw_pixel(x0 - x, y0 + y, color);
 80020f2:	eba7 0b04 	sub.w	fp, r7, r4
    lcd_draw_pixel(x0 + x, y0 + y, color);
 80020f6:	4618      	mov	r0, r3
 80020f8:	4652      	mov	r2, sl
 80020fa:	b2c9      	uxtb	r1, r1
    lcd_draw_pixel(x0 - x, y0 + y, color);
 80020fc:	fa5f fb8b 	uxtb.w	fp, fp
    lcd_draw_pixel(x0 + x, y0 + y, color);
 8002100:	9303      	str	r3, [sp, #12]
 8002102:	9102      	str	r1, [sp, #8]
 8002104:	f7ff fc74 	bl	80019f0 <lcd_draw_pixel>
    lcd_draw_pixel(x0 - x, y0 + y, color);
 8002108:	4652      	mov	r2, sl
 800210a:	4658      	mov	r0, fp
 800210c:	9902      	ldr	r1, [sp, #8]
 800210e:	f7ff fc6f 	bl	80019f0 <lcd_draw_pixel>
    lcd_draw_pixel(x0 + x, y0 - y, color);
 8002112:	9b03      	ldr	r3, [sp, #12]
 8002114:	eba8 0109 	sub.w	r1, r8, r9
 8002118:	4618      	mov	r0, r3
 800211a:	4652      	mov	r2, sl
 800211c:	b2c9      	uxtb	r1, r1
 800211e:	9102      	str	r1, [sp, #8]
 8002120:	f7ff fc66 	bl	80019f0 <lcd_draw_pixel>
    lcd_draw_pixel(x0 - x, y0 - y, color);
 8002124:	4652      	mov	r2, sl
 8002126:	4658      	mov	r0, fp
 8002128:	9902      	ldr	r1, [sp, #8]
    lcd_draw_pixel(x0 + y, y0 + x, color);
 800212a:	eb07 0b09 	add.w	fp, r7, r9
    lcd_draw_pixel(x0 - x, y0 - y, color);
 800212e:	f7ff fc5f 	bl	80019f0 <lcd_draw_pixel>
    lcd_draw_pixel(x0 + y, y0 + x, color);
 8002132:	fa5f fb8b 	uxtb.w	fp, fp
 8002136:	eb08 0104 	add.w	r1, r8, r4
    lcd_draw_pixel(x0 - y, y0 + x, color);
 800213a:	eba7 0909 	sub.w	r9, r7, r9
    lcd_draw_pixel(x0 + y, y0 + x, color);
 800213e:	4652      	mov	r2, sl
 8002140:	4658      	mov	r0, fp
 8002142:	b2c9      	uxtb	r1, r1
    lcd_draw_pixel(x0 - y, y0 + x, color);
 8002144:	fa5f f989 	uxtb.w	r9, r9
    lcd_draw_pixel(x0 + y, y0 - x, color);
 8002148:	eba8 0404 	sub.w	r4, r8, r4
    lcd_draw_pixel(x0 + y, y0 + x, color);
 800214c:	9102      	str	r1, [sp, #8]
    lcd_draw_pixel(x0 + y, y0 - x, color);
 800214e:	b2e4      	uxtb	r4, r4
    lcd_draw_pixel(x0 + y, y0 + x, color);
 8002150:	f7ff fc4e 	bl	80019f0 <lcd_draw_pixel>
    lcd_draw_pixel(x0 - y, y0 + x, color);
 8002154:	4652      	mov	r2, sl
 8002156:	4648      	mov	r0, r9
 8002158:	9902      	ldr	r1, [sp, #8]
 800215a:	f7ff fc49 	bl	80019f0 <lcd_draw_pixel>
    lcd_draw_pixel(x0 + y, y0 - x, color);
 800215e:	4652      	mov	r2, sl
 8002160:	4621      	mov	r1, r4
 8002162:	4658      	mov	r0, fp
 8002164:	f7ff fc44 	bl	80019f0 <lcd_draw_pixel>
    f += ddF_x;
 8002168:	3501      	adds	r5, #1
    lcd_draw_pixel(x0 - y, y0 - x, color);
 800216a:	4652      	mov	r2, sl
 800216c:	4621      	mov	r1, r4
 800216e:	4648      	mov	r0, r9
    f += ddF_x;
 8002170:	b22d      	sxth	r5, r5
    lcd_draw_pixel(x0 - y, y0 - x, color);
 8002172:	f7ff fc3d 	bl	80019f0 <lcd_draw_pixel>
 8002176:	e79e      	b.n	80020b6 <lcd_draw_circle+0x5c>

08002178 <resetBall>:

}


static void resetBall( void ){
	ball_vel_x=0;
 8002178:	2200      	movs	r2, #0
 800217a:	4b04      	ldr	r3, [pc, #16]	; (800218c <resetBall+0x14>)
	ball_vel_y=0;
	ball_x=64;
	ball_y=79;
 800217c:	2140      	movs	r1, #64	; 0x40
	ball_vel_x=0;
 800217e:	601a      	str	r2, [r3, #0]
	ball_vel_y=0;
 8002180:	4b03      	ldr	r3, [pc, #12]	; (8002190 <resetBall+0x18>)
 8002182:	601a      	str	r2, [r3, #0]
	ball_y=79;
 8002184:	224f      	movs	r2, #79	; 0x4f
 8002186:	e9c3 1201 	strd	r1, r2, [r3, #4]
}
 800218a:	4770      	bx	lr
 800218c:	200045cc 	.word	0x200045cc
 8002190:	2000001c 	.word	0x2000001c

08002194 <flash>:
static void flash( void *pvParameters ){
 8002194:	b583      	push	{r0, r1, r7, lr}
	xLastExecutionTime = xTaskGetTickCount();
 8002196:	f7fe fdf7 	bl	8000d88 <xTaskGetTickCount>
		if(xSemaphoreTake(usartSemaphore, (TickType_t) 10) == pdTRUE){
 800219a:	4e11      	ldr	r6, [pc, #68]	; (80021e0 <flash+0x4c>)
			xQueueReceive(queueusart1, &data, ( TickType_t ) 10);
 800219c:	4d11      	ldr	r5, [pc, #68]	; (80021e4 <flash+0x50>)
 800219e:	4f12      	ldr	r7, [pc, #72]	; (80021e8 <flash+0x54>)
	xLastExecutionTime = xTaskGetTickCount();
 80021a0:	9001      	str	r0, [sp, #4]
		if(xSemaphoreTake(usartSemaphore, (TickType_t) 10) == pdTRUE){
 80021a2:	210a      	movs	r1, #10
 80021a4:	6830      	ldr	r0, [r6, #0]
 80021a6:	f7fe fbb9 	bl	800091c <xQueueSemaphoreTake>
 80021aa:	2801      	cmp	r0, #1
 80021ac:	d113      	bne.n	80021d6 <flash+0x42>
			lcd_draw_circle( ball_x, ball_y, BALL_RADIUS, 0 );
 80021ae:	4c0f      	ldr	r4, [pc, #60]	; (80021ec <flash+0x58>)
			xQueueReceive(queueusart1, &data, ( TickType_t ) 10);
 80021b0:	220a      	movs	r2, #10
 80021b2:	490c      	ldr	r1, [pc, #48]	; (80021e4 <flash+0x50>)
 80021b4:	6838      	ldr	r0, [r7, #0]
 80021b6:	f7fe fb39 	bl	800082c <xQueueReceive>
			lcd_draw_circle( ball_x, ball_y, BALL_RADIUS, 0 );
 80021ba:	2300      	movs	r3, #0
 80021bc:	2203      	movs	r2, #3
 80021be:	f9b4 1008 	ldrsh.w	r1, [r4, #8]
 80021c2:	f9b4 0004 	ldrsh.w	r0, [r4, #4]
 80021c6:	f7ff ff48 	bl	800205a <lcd_draw_circle>
			enemy_position = data[0];
 80021ca:	682b      	ldr	r3, [r5, #0]
 80021cc:	60e3      	str	r3, [r4, #12]
			ball_x = data[1];
 80021ce:	686b      	ldr	r3, [r5, #4]
 80021d0:	6063      	str	r3, [r4, #4]
			ball_y = data[2];
 80021d2:	68ab      	ldr	r3, [r5, #8]
 80021d4:	60a3      	str	r3, [r4, #8]
		vTaskDelayUntil( &xLastExecutionTime, mainTEMP_DELAY );
 80021d6:	2132      	movs	r1, #50	; 0x32
 80021d8:	a801      	add	r0, sp, #4
 80021da:	f7fe fea1 	bl	8000f20 <vTaskDelayUntil>
		if(xSemaphoreTake(usartSemaphore, (TickType_t) 10) == pdTRUE){
 80021de:	e7e0      	b.n	80021a2 <flash+0xe>
 80021e0:	20004630 	.word	0x20004630
 80021e4:	20004644 	.word	0x20004644
 80021e8:	20004640 	.word	0x20004640
 80021ec:	2000001c 	.word	0x2000001c

080021f0 <clearLcd>:
static void clearLcd( void ){
 80021f0:	b507      	push	{r0, r1, r2, lr}
	lcd_draw_fillrect(0, 0, LCD_WIDTH, LCD_HEIGHT, 0);
 80021f2:	2100      	movs	r1, #0
 80021f4:	23a0      	movs	r3, #160	; 0xa0
 80021f6:	2280      	movs	r2, #128	; 0x80
 80021f8:	4608      	mov	r0, r1
 80021fa:	9100      	str	r1, [sp, #0]
 80021fc:	f7ff fc22 	bl	8001a44 <lcd_draw_fillrect>
}
 8002200:	b003      	add	sp, #12
 8002202:	f85d fb04 	ldr.w	pc, [sp], #4

08002206 <drawTickedLine>:
static void drawTickedLine( void ){
 8002206:	b513      	push	{r0, r1, r4, lr}
	lcd_draw_line(0 ,79, 7, 79,0xffff);
 8002208:	234f      	movs	r3, #79	; 0x4f
 800220a:	f64f 74ff 	movw	r4, #65535	; 0xffff
 800220e:	4619      	mov	r1, r3
 8002210:	2207      	movs	r2, #7
 8002212:	2000      	movs	r0, #0
 8002214:	9400      	str	r4, [sp, #0]
 8002216:	f7ff fdfb 	bl	8001e10 <lcd_draw_line>
	lcd_draw_line(13 ,79, 23, 79, 0xffff);
 800221a:	234f      	movs	r3, #79	; 0x4f
 800221c:	2217      	movs	r2, #23
 800221e:	4619      	mov	r1, r3
 8002220:	200d      	movs	r0, #13
 8002222:	9400      	str	r4, [sp, #0]
 8002224:	f7ff fdf4 	bl	8001e10 <lcd_draw_line>
	lcd_draw_line(27 ,79, 37, 79, 0xffff);
 8002228:	234f      	movs	r3, #79	; 0x4f
 800222a:	2225      	movs	r2, #37	; 0x25
 800222c:	4619      	mov	r1, r3
 800222e:	201b      	movs	r0, #27
 8002230:	9400      	str	r4, [sp, #0]
 8002232:	f7ff fded 	bl	8001e10 <lcd_draw_line>
	lcd_draw_line(43 ,79, 53, 79, 0xffff);
 8002236:	234f      	movs	r3, #79	; 0x4f
 8002238:	2235      	movs	r2, #53	; 0x35
 800223a:	4619      	mov	r1, r3
 800223c:	202b      	movs	r0, #43	; 0x2b
 800223e:	9400      	str	r4, [sp, #0]
 8002240:	f7ff fde6 	bl	8001e10 <lcd_draw_line>
	lcd_draw_line(59 ,79, 69, 79, 0xffff);
 8002244:	234f      	movs	r3, #79	; 0x4f
 8002246:	2245      	movs	r2, #69	; 0x45
 8002248:	4619      	mov	r1, r3
 800224a:	203b      	movs	r0, #59	; 0x3b
 800224c:	9400      	str	r4, [sp, #0]
 800224e:	f7ff fddf 	bl	8001e10 <lcd_draw_line>
	lcd_draw_line(75 ,79, 85, 79, 0xffff);
 8002252:	234f      	movs	r3, #79	; 0x4f
 8002254:	2255      	movs	r2, #85	; 0x55
 8002256:	4619      	mov	r1, r3
 8002258:	204b      	movs	r0, #75	; 0x4b
 800225a:	9400      	str	r4, [sp, #0]
 800225c:	f7ff fdd8 	bl	8001e10 <lcd_draw_line>
	lcd_draw_line(90 ,79, 100, 79, 0xffff);
 8002260:	234f      	movs	r3, #79	; 0x4f
 8002262:	2264      	movs	r2, #100	; 0x64
 8002264:	4619      	mov	r1, r3
 8002266:	205a      	movs	r0, #90	; 0x5a
 8002268:	9400      	str	r4, [sp, #0]
 800226a:	f7ff fdd1 	bl	8001e10 <lcd_draw_line>
	lcd_draw_line(105 ,79, 115, 79, 0xffff);
 800226e:	234f      	movs	r3, #79	; 0x4f
 8002270:	2273      	movs	r2, #115	; 0x73
 8002272:	4619      	mov	r1, r3
 8002274:	2069      	movs	r0, #105	; 0x69
 8002276:	9400      	str	r4, [sp, #0]
 8002278:	f7ff fdca 	bl	8001e10 <lcd_draw_line>
	lcd_draw_line(120 ,79, 127, 79, 0xffff);
 800227c:	234f      	movs	r3, #79	; 0x4f
 800227e:	227f      	movs	r2, #127	; 0x7f
 8002280:	4619      	mov	r1, r3
 8002282:	2078      	movs	r0, #120	; 0x78
 8002284:	9400      	str	r4, [sp, #0]
 8002286:	f7ff fdc3 	bl	8001e10 <lcd_draw_line>
}
 800228a:	b002      	add	sp, #8
 800228c:	bd10      	pop	{r4, pc}
	...

08002290 <printScore>:
	lcd_draw_string(30, 40, "YOU", 0xffff, 4);
	lcd_draw_string(15, 75, "LOSE!", 0xffff, 4);
}


static void printScore( void ){
 8002290:	b537      	push	{r0, r1, r2, r4, r5, lr}
	char buffer;

	buffer = playerScore + '0';
	lcd_draw_char(108, 85, buffer, 0xffff, 3);
 8002292:	2403      	movs	r4, #3
	buffer = playerScore + '0';
 8002294:	4d0b      	ldr	r5, [pc, #44]	; (80022c4 <printScore+0x34>)
	lcd_draw_char(108, 85, buffer, 0xffff, 3);
 8002296:	f64f 73ff 	movw	r3, #65535	; 0xffff
	buffer = playerScore + '0';
 800229a:	686a      	ldr	r2, [r5, #4]
	lcd_draw_char(108, 85, buffer, 0xffff, 3);
 800229c:	2155      	movs	r1, #85	; 0x55
	buffer = playerScore + '0';
 800229e:	3230      	adds	r2, #48	; 0x30
	lcd_draw_char(108, 85, buffer, 0xffff, 3);
 80022a0:	206c      	movs	r0, #108	; 0x6c
 80022a2:	9400      	str	r4, [sp, #0]
 80022a4:	b2d2      	uxtb	r2, r2
 80022a6:	f7ff fe61 	bl	8001f6c <lcd_draw_char>

	buffer = enemyScore + '0';
 80022aa:	68aa      	ldr	r2, [r5, #8]
	lcd_draw_char(108, 53, buffer, 0xffff, 3);
 80022ac:	f64f 73ff 	movw	r3, #65535	; 0xffff
	buffer = enemyScore + '0';
 80022b0:	3230      	adds	r2, #48	; 0x30
	lcd_draw_char(108, 53, buffer, 0xffff, 3);
 80022b2:	2135      	movs	r1, #53	; 0x35
 80022b4:	206c      	movs	r0, #108	; 0x6c
 80022b6:	9400      	str	r4, [sp, #0]
 80022b8:	b2d2      	uxtb	r2, r2
 80022ba:	f7ff fe57 	bl	8001f6c <lcd_draw_char>
}
 80022be:	b003      	add	sp, #12
 80022c0:	bd30      	pop	{r4, r5, pc}
 80022c2:	bf00      	nop
 80022c4:	200045cc 	.word	0x200045cc

080022c8 <updateBallTask>:
static void updateBallTask( void *pvParameters ){
 80022c8:	b507      	push	{r0, r1, r2, lr}
        lcd_draw_circle( ball_x, ball_y, BALL_RADIUS, 0 );
 80022ca:	4d1d      	ldr	r5, [pc, #116]	; (8002340 <updateBallTask+0x78>)
    xLastExecutionTime = xTaskGetTickCount();
 80022cc:	f7fe fd5c 	bl	8000d88 <xTaskGetTickCount>
 80022d0:	462c      	mov	r4, r5
 80022d2:	9001      	str	r0, [sp, #4]
        lcd_draw_circle( ball_x, ball_y, BALL_RADIUS, 0 );
 80022d4:	2300      	movs	r3, #0
 80022d6:	2203      	movs	r2, #3
 80022d8:	f9b5 1008 	ldrsh.w	r1, [r5, #8]
 80022dc:	f9b5 0004 	ldrsh.w	r0, [r5, #4]
 80022e0:	f7ff febb 	bl	800205a <lcd_draw_circle>
        if(ball_y < LCD_HEIGHT/2 + BALL_RADIUS && ball_y > LCD_HEIGHT/2 - BALL_RADIUS){
 80022e4:	68ab      	ldr	r3, [r5, #8]
 80022e6:	3b4e      	subs	r3, #78	; 0x4e
 80022e8:	2b04      	cmp	r3, #4
 80022ea:	d801      	bhi.n	80022f0 <updateBallTask+0x28>
            drawTickedLine();
 80022ec:	f7ff ff8b 	bl	8002206 <drawTickedLine>
        if(ball_x > 105 && ball_y > 53 && ball_y < 103) printScore();
 80022f0:	6863      	ldr	r3, [r4, #4]
 80022f2:	2b69      	cmp	r3, #105	; 0x69
 80022f4:	dd05      	ble.n	8002302 <updateBallTask+0x3a>
 80022f6:	68a3      	ldr	r3, [r4, #8]
 80022f8:	3b36      	subs	r3, #54	; 0x36
 80022fa:	2b30      	cmp	r3, #48	; 0x30
 80022fc:	d801      	bhi.n	8002302 <updateBallTask+0x3a>
 80022fe:	f7ff ffc7 	bl	8002290 <printScore>
        ball_x += BALL_SPEED * ball_vel_x;
 8002302:	4a10      	ldr	r2, [pc, #64]	; (8002344 <updateBallTask+0x7c>)
 8002304:	6863      	ldr	r3, [r4, #4]
 8002306:	6812      	ldr	r2, [r2, #0]
        ball_y += BALL_SPEED * ball_vel_y;
 8002308:	68a1      	ldr	r1, [r4, #8]
        ball_x += BALL_SPEED * ball_vel_x;
 800230a:	4413      	add	r3, r2
        ball_y += BALL_SPEED * ball_vel_y;
 800230c:	6822      	ldr	r2, [r4, #0]
        if(ball_x >= LCD_WIDTH - (BALL_RADIUS+2)) ball_x = LCD_WIDTH - (BALL_RADIUS+2);
 800230e:	2b7a      	cmp	r3, #122	; 0x7a
        ball_y += BALL_SPEED * ball_vel_y;
 8002310:	4411      	add	r1, r2
        ball_x += BALL_SPEED * ball_vel_x;
 8002312:	6063      	str	r3, [r4, #4]
        ball_y += BALL_SPEED * ball_vel_y;
 8002314:	60a1      	str	r1, [r4, #8]
        if(ball_x >= LCD_WIDTH - (BALL_RADIUS+2)) ball_x = LCD_WIDTH - (BALL_RADIUS+2);
 8002316:	dd0e      	ble.n	8002336 <updateBallTask+0x6e>
 8002318:	237b      	movs	r3, #123	; 0x7b
        if(ball_x <= (BALL_RADIUS+2)) ball_x = (BALL_RADIUS+2);
 800231a:	6063      	str	r3, [r4, #4]
        lcd_draw_circle( ball_x, ball_y, BALL_RADIUS, 0xb3df );
 800231c:	f9b4 0004 	ldrsh.w	r0, [r4, #4]
 8002320:	f24b 33df 	movw	r3, #46047	; 0xb3df
 8002324:	2203      	movs	r2, #3
 8002326:	b209      	sxth	r1, r1
 8002328:	f7ff fe97 	bl	800205a <lcd_draw_circle>
        vTaskDelayUntil( &xLastExecutionTime, mainFLASH_DELAY );
 800232c:	2164      	movs	r1, #100	; 0x64
 800232e:	a801      	add	r0, sp, #4
 8002330:	f7fe fdf6 	bl	8000f20 <vTaskDelayUntil>
        lcd_draw_circle( ball_x, ball_y, BALL_RADIUS, 0 );
 8002334:	e7ce      	b.n	80022d4 <updateBallTask+0xc>
        if(ball_x <= (BALL_RADIUS+2)) ball_x = (BALL_RADIUS+2);
 8002336:	2b05      	cmp	r3, #5
 8002338:	dcf0      	bgt.n	800231c <updateBallTask+0x54>
 800233a:	2305      	movs	r3, #5
 800233c:	e7ed      	b.n	800231a <updateBallTask+0x52>
 800233e:	bf00      	nop
 8002340:	2000001c 	.word	0x2000001c
 8002344:	200045cc 	.word	0x200045cc

08002348 <restart>:
static void restart( void ){
 8002348:	b513      	push	{r0, r1, r4, lr}
	clearLcd();
 800234a:	f7ff ff51 	bl	80021f0 <clearLcd>
	lcd_draw_fillrect(0, 0, LCD_WIDTH, LCD_HEIGHT, 0xffff);
 800234e:	2100      	movs	r1, #0
 8002350:	f64f 73ff 	movw	r3, #65535	; 0xffff
 8002354:	4608      	mov	r0, r1
 8002356:	9300      	str	r3, [sp, #0]
 8002358:	2280      	movs	r2, #128	; 0x80
 800235a:	23a0      	movs	r3, #160	; 0xa0
 800235c:	f7ff fb72 	bl	8001a44 <lcd_draw_fillrect>
	lcd_draw_fillrect(1, 1, LCD_WIDTH-2, LCD_HEIGHT-2, 0);
 8002360:	2400      	movs	r4, #0
 8002362:	2101      	movs	r1, #1
 8002364:	239e      	movs	r3, #158	; 0x9e
 8002366:	4608      	mov	r0, r1
 8002368:	227e      	movs	r2, #126	; 0x7e
 800236a:	9400      	str	r4, [sp, #0]
 800236c:	f7ff fb6a 	bl	8001a44 <lcd_draw_fillrect>
	drawTickedLine();
 8002370:	f7ff ff49 	bl	8002206 <drawTickedLine>
	resetBall();
 8002374:	f7ff ff00 	bl	8002178 <resetBall>
	player_position=60;
 8002378:	223c      	movs	r2, #60	; 0x3c
 800237a:	4b0b      	ldr	r3, [pc, #44]	; (80023a8 <restart+0x60>)
	enemy_position=60;
 800237c:	e9c3 2203 	strd	r2, r2, [r3, #12]
	playerScore=0;
 8002380:	4b0a      	ldr	r3, [pc, #40]	; (80023ac <restart+0x64>)
	enemyScore=0;
 8002382:	e9c3 4401 	strd	r4, r4, [r3, #4]
	printScore();
 8002386:	f7ff ff83 	bl	8002290 <printScore>
	vTaskSuspend(checkColisionsTaskHandler);
}


static void resumeGame( void ){
	vTaskResume(playerTaskHandler);
 800238a:	4b09      	ldr	r3, [pc, #36]	; (80023b0 <restart+0x68>)
 800238c:	6818      	ldr	r0, [r3, #0]
 800238e:	f7fe fc8b 	bl	8000ca8 <vTaskResume>
	vTaskResume(ballTaskHandler);
 8002392:	4b08      	ldr	r3, [pc, #32]	; (80023b4 <restart+0x6c>)
 8002394:	6818      	ldr	r0, [r3, #0]
 8002396:	f7fe fc87 	bl	8000ca8 <vTaskResume>
	vTaskResume(checkColisionsTaskHandler);
 800239a:	4b07      	ldr	r3, [pc, #28]	; (80023b8 <restart+0x70>)
 800239c:	6818      	ldr	r0, [r3, #0]
}
 800239e:	b002      	add	sp, #8
 80023a0:	e8bd 4010 	ldmia.w	sp!, {r4, lr}
	vTaskResume(checkColisionsTaskHandler);
 80023a4:	f7fe bc80 	b.w	8000ca8 <vTaskResume>
 80023a8:	2000001c 	.word	0x2000001c
 80023ac:	200045cc 	.word	0x200045cc
 80023b0:	20004650 	.word	0x20004650
 80023b4:	20004614 	.word	0x20004614
 80023b8:	20004654 	.word	0x20004654

080023bc <pairingTask>:
static void pairingTask( void *pvParameters ){
 80023bc:	b507      	push	{r0, r1, r2, lr}
	xLastExecutionTime = xTaskGetTickCount();
 80023be:	f7fe fce3 	bl	8000d88 <xTaskGetTickCount>
		if(xSemaphoreTake(pairingSemaphore, (TickType_t) 10) == pdTRUE){
 80023c2:	4c0a      	ldr	r4, [pc, #40]	; (80023ec <pairingTask+0x30>)
			vTaskSuspend(pairingTaskHandler);
 80023c4:	4d0a      	ldr	r5, [pc, #40]	; (80023f0 <pairingTask+0x34>)
	xLastExecutionTime = xTaskGetTickCount();
 80023c6:	9001      	str	r0, [sp, #4]
		if(xSemaphoreTake(pairingSemaphore, (TickType_t) 10) == pdTRUE){
 80023c8:	210a      	movs	r1, #10
 80023ca:	6820      	ldr	r0, [r4, #0]
 80023cc:	f7fe faa6 	bl	800091c <xQueueSemaphoreTake>
 80023d0:	2801      	cmp	r0, #1
 80023d2:	d104      	bne.n	80023de <pairingTask+0x22>
			restart();
 80023d4:	f7ff ffb8 	bl	8002348 <restart>
			vTaskSuspend(pairingTaskHandler);
 80023d8:	6828      	ldr	r0, [r5, #0]
 80023da:	f7fe fdef 	bl	8000fbc <vTaskSuspend>
		vTaskDelayUntil( &xLastExecutionTime, pairingTEMP_DELAY );
 80023de:	f44f 717a 	mov.w	r1, #1000	; 0x3e8
 80023e2:	a801      	add	r0, sp, #4
 80023e4:	f7fe fd9c 	bl	8000f20 <vTaskDelayUntil>
		if(xSemaphoreTake(pairingSemaphore, (TickType_t) 10) == pdTRUE){
 80023e8:	e7ee      	b.n	80023c8 <pairingTask+0xc>
 80023ea:	bf00      	nop
 80023ec:	20004610 	.word	0x20004610
 80023f0:	2000460c 	.word	0x2000460c

080023f4 <gameEndingTask>:
static void gameEndingTask( void *pvParameters ){
 80023f4:	b58f      	push	{r0, r1, r2, r3, r7, lr}
    	if(gameOverFlag==1){
 80023f6:	4c28      	ldr	r4, [pc, #160]	; (8002498 <gameEndingTask+0xa4>)
	xLastExecutionTime = xTaskGetTickCount();
 80023f8:	f7fe fcc6 	bl	8000d88 <xTaskGetTickCount>
 80023fc:	4625      	mov	r5, r4
    		vTaskSuspend(playerTaskHandler);
 80023fe:	4f27      	ldr	r7, [pc, #156]	; (800249c <gameEndingTask+0xa8>)
	xLastExecutionTime = xTaskGetTickCount();
 8002400:	9003      	str	r0, [sp, #12]
    	vTaskDelayUntil( &xLastExecutionTime, mainFLASH_DELAY );
 8002402:	2164      	movs	r1, #100	; 0x64
 8002404:	a803      	add	r0, sp, #12
 8002406:	f7fe fd8b 	bl	8000f20 <vTaskDelayUntil>
    	if(gameOverFlag==1){
 800240a:	68e3      	ldr	r3, [r4, #12]
 800240c:	2b01      	cmp	r3, #1
 800240e:	d138      	bne.n	8002482 <gameEndingTask+0x8e>
    		vTaskSuspend(playerTaskHandler);
 8002410:	6838      	ldr	r0, [r7, #0]
 8002412:	f7fe fdd3 	bl	8000fbc <vTaskSuspend>
    		vTaskSuspend(ballTaskHandler);
 8002416:	4b22      	ldr	r3, [pc, #136]	; (80024a0 <gameEndingTask+0xac>)
 8002418:	6818      	ldr	r0, [r3, #0]
 800241a:	f7fe fdcf 	bl	8000fbc <vTaskSuspend>
    		vTaskSuspend(checkColisionsTaskHandler);
 800241e:	4b21      	ldr	r3, [pc, #132]	; (80024a4 <gameEndingTask+0xb0>)
 8002420:	6818      	ldr	r0, [r3, #0]
 8002422:	f7fe fdcb 	bl	8000fbc <vTaskSuspend>
	if(enemyScore==3)
 8002426:	68a3      	ldr	r3, [r4, #8]
 8002428:	2b03      	cmp	r3, #3
 800242a:	d112      	bne.n	8002452 <gameEndingTask+0x5e>
	lcd_draw_string(30, 40, "YOU", 0xffff, 4);
 800242c:	2604      	movs	r6, #4
	clearLcd();
 800242e:	f7ff fedf 	bl	80021f0 <clearLcd>
	lcd_draw_string(30, 40, "YOU", 0xffff, 4);
 8002432:	f64f 73ff 	movw	r3, #65535	; 0xffff
 8002436:	2128      	movs	r1, #40	; 0x28
 8002438:	201e      	movs	r0, #30
 800243a:	4a1b      	ldr	r2, [pc, #108]	; (80024a8 <gameEndingTask+0xb4>)
 800243c:	9600      	str	r6, [sp, #0]
 800243e:	f7ff fdeb 	bl	8002018 <lcd_draw_string>
	lcd_draw_string(15, 75, "LOSE!", 0xffff, 4);
 8002442:	f64f 73ff 	movw	r3, #65535	; 0xffff
 8002446:	214b      	movs	r1, #75	; 0x4b
 8002448:	200f      	movs	r0, #15
 800244a:	4a18      	ldr	r2, [pc, #96]	; (80024ac <gameEndingTask+0xb8>)
 800244c:	9600      	str	r6, [sp, #0]
 800244e:	f7ff fde3 	bl	8002018 <lcd_draw_string>
	if(playerScore==3)
 8002452:	686b      	ldr	r3, [r5, #4]
 8002454:	2b03      	cmp	r3, #3
 8002456:	d112      	bne.n	800247e <gameEndingTask+0x8a>
	lcd_draw_string(30, 40, "YOU", 0xffff, 4);
 8002458:	2604      	movs	r6, #4
	clearLcd();
 800245a:	f7ff fec9 	bl	80021f0 <clearLcd>
	lcd_draw_string(30, 40, "YOU", 0xffff, 4);
 800245e:	f64f 73ff 	movw	r3, #65535	; 0xffff
 8002462:	2128      	movs	r1, #40	; 0x28
 8002464:	201e      	movs	r0, #30
 8002466:	4a10      	ldr	r2, [pc, #64]	; (80024a8 <gameEndingTask+0xb4>)
 8002468:	9600      	str	r6, [sp, #0]
 800246a:	f7ff fdd5 	bl	8002018 <lcd_draw_string>
	lcd_draw_string(25, 75, "WIN!", 0xffff, 4);
 800246e:	f64f 73ff 	movw	r3, #65535	; 0xffff
 8002472:	214b      	movs	r1, #75	; 0x4b
 8002474:	2019      	movs	r0, #25
 8002476:	4a0e      	ldr	r2, [pc, #56]	; (80024b0 <gameEndingTask+0xbc>)
 8002478:	9600      	str	r6, [sp, #0]
 800247a:	f7ff fdcd 	bl	8002018 <lcd_draw_string>
    		gameOverFlag=0;
 800247e:	2300      	movs	r3, #0
 8002480:	60eb      	str	r3, [r5, #12]
		if(xSemaphoreTake( xSemaphore, (TickType_t) portMAX_DELAY) == pdTRUE){
 8002482:	4b0c      	ldr	r3, [pc, #48]	; (80024b4 <gameEndingTask+0xc0>)
 8002484:	f04f 31ff 	mov.w	r1, #4294967295
 8002488:	6818      	ldr	r0, [r3, #0]
 800248a:	f7fe fa47 	bl	800091c <xQueueSemaphoreTake>
 800248e:	2801      	cmp	r0, #1
 8002490:	d1b7      	bne.n	8002402 <gameEndingTask+0xe>
			restart();
 8002492:	f7ff ff59 	bl	8002348 <restart>
 8002496:	e7b4      	b.n	8002402 <gameEndingTask+0xe>
 8002498:	200045cc 	.word	0x200045cc
 800249c:	20004650 	.word	0x20004650
 80024a0:	20004614 	.word	0x20004614
 80024a4:	20004654 	.word	0x20004654
 80024a8:	08003a71 	.word	0x08003a71
 80024ac:	08003a75 	.word	0x08003a75
 80024b0:	08003a7b 	.word	0x08003a7b
 80024b4:	20004618 	.word	0x20004618

080024b8 <drawPlayersTask>:
{
 80024b8:	b580      	push	{r7, lr}
		if(last_player_position != player_position){
 80024ba:	4d3a      	ldr	r5, [pc, #232]	; (80025a4 <drawPlayersTask+0xec>)
{
 80024bc:	b08a      	sub	sp, #40	; 0x28
	xLastExecutionTime = xTaskGetTickCount();
 80024be:	f7fe fc63 	bl	8000d88 <xTaskGetTickCount>
 80024c2:	462f      	mov	r7, r5
	USART_SendData(USART1, message);
 80024c4:	f8df 80ec 	ldr.w	r8, [pc, #236]	; 80025b4 <drawPlayersTask+0xfc>
	xLastExecutionTime = xTaskGetTickCount();
 80024c8:	9003      	str	r0, [sp, #12]
		if(last_player_position != player_position){
 80024ca:	4c37      	ldr	r4, [pc, #220]	; (80025a8 <drawPlayersTask+0xf0>)
 80024cc:	692a      	ldr	r2, [r5, #16]
 80024ce:	6923      	ldr	r3, [r4, #16]
 80024d0:	429a      	cmp	r2, r3
 80024d2:	d011      	beq.n	80024f8 <drawPlayersTask+0x40>
			lcd_draw_fillrect(0, 150, LCD_WIDTH, PLAYER_THICCNESS , 0);
 80024d4:	2000      	movs	r0, #0
 80024d6:	2302      	movs	r3, #2
 80024d8:	2280      	movs	r2, #128	; 0x80
 80024da:	2196      	movs	r1, #150	; 0x96
 80024dc:	9000      	str	r0, [sp, #0]
 80024de:	f7ff fab1 	bl	8001a44 <lcd_draw_fillrect>
			lcd_draw_fillrect(player_position, 150, PLAYER_WIDTH, PLAYER_THICCNESS , 0xd4c3);
 80024e2:	f24d 43c3 	movw	r3, #54467	; 0xd4c3
 80024e6:	9300      	str	r3, [sp, #0]
 80024e8:	221e      	movs	r2, #30
 80024ea:	2302      	movs	r3, #2
 80024ec:	2196      	movs	r1, #150	; 0x96
 80024ee:	7c20      	ldrb	r0, [r4, #16]
 80024f0:	f7ff faa8 	bl	8001a44 <lcd_draw_fillrect>
			last_player_position = player_position;
 80024f4:	6923      	ldr	r3, [r4, #16]
 80024f6:	612b      	str	r3, [r5, #16]
	    if(last_enemy_position != enemy_position){
 80024f8:	697a      	ldr	r2, [r7, #20]
 80024fa:	68e3      	ldr	r3, [r4, #12]
 80024fc:	429a      	cmp	r2, r3
 80024fe:	d011      	beq.n	8002524 <drawPlayersTask+0x6c>
	    	lcd_draw_fillrect(0, 10, LCD_WIDTH, PLAYER_THICCNESS , 0);
 8002500:	2000      	movs	r0, #0
 8002502:	2302      	movs	r3, #2
 8002504:	2280      	movs	r2, #128	; 0x80
 8002506:	210a      	movs	r1, #10
 8002508:	9000      	str	r0, [sp, #0]
 800250a:	f7ff fa9b 	bl	8001a44 <lcd_draw_fillrect>
			lcd_draw_fillrect(enemy_position, 10, PLAYER_WIDTH, PLAYER_THICCNESS , 0xd4c3);
 800250e:	f24d 43c3 	movw	r3, #54467	; 0xd4c3
 8002512:	9300      	str	r3, [sp, #0]
 8002514:	221e      	movs	r2, #30
 8002516:	2302      	movs	r3, #2
 8002518:	210a      	movs	r1, #10
 800251a:	7b20      	ldrb	r0, [r4, #12]
 800251c:	f7ff fa92 	bl	8001a44 <lcd_draw_fillrect>
			last_enemy_position = enemy_position;
 8002520:	68e3      	ldr	r3, [r4, #12]
 8002522:	617b      	str	r3, [r7, #20]
	    position = LCD_WIDTH - player_position - PLAYER_WIDTH;
 8002524:	6923      	ldr	r3, [r4, #16]
	    xQueueSendToBack(queueusendusart1, ( void * ) &position, ( TickType_t ) 10);
 8002526:	4c21      	ldr	r4, [pc, #132]	; (80025ac <drawPlayersTask+0xf4>)
	    position = LCD_WIDTH - player_position - PLAYER_WIDTH;
 8002528:	f1c3 0362 	rsb	r3, r3, #98	; 0x62
	    xQueueSendToBack(queueusendusart1, ( void * ) &position, ( TickType_t ) 10);
 800252c:	220a      	movs	r2, #10
	    position = LCD_WIDTH - player_position - PLAYER_WIDTH;
 800252e:	9304      	str	r3, [sp, #16]
	    xQueueSendToBack(queueusendusart1, ( void * ) &position, ( TickType_t ) 10);
 8002530:	a904      	add	r1, sp, #16
 8002532:	2300      	movs	r3, #0
 8002534:	6820      	ldr	r0, [r4, #0]
 8002536:	f7fe f895 	bl	8000664 <xQueueGenericSend>
	xQueueReceive(queueusendusart1, &message, ( TickType_t ) 10);
 800253a:	220a      	movs	r2, #10
 800253c:	6820      	ldr	r0, [r4, #0]
 800253e:	eb0d 0102 	add.w	r1, sp, r2
 8002542:	f7fe f973 	bl	800082c <xQueueReceive>
	USART_SendData(USART1, message);
 8002546:	4640      	mov	r0, r8
 8002548:	f8bd 100a 	ldrh.w	r1, [sp, #10]
 800254c:	f7ff f9b0 	bl	80018b0 <USART_SendData>
	while(USART_GetFlagStatus(USART1, USART_FLAG_TXE) == RESET)
 8002550:	2180      	movs	r1, #128	; 0x80
 8002552:	4640      	mov	r0, r8
 8002554:	f7ff f9b4 	bl	80018c0 <USART_GetFlagStatus>
 8002558:	2800      	cmp	r0, #0
 800255a:	d0f9      	beq.n	8002550 <drawPlayersTask+0x98>
	sprintf(buff22,"%d\n", message);
 800255c:	f8bd 200a 	ldrh.w	r2, [sp, #10]
 8002560:	4913      	ldr	r1, [pc, #76]	; (80025b0 <drawPlayersTask+0xf8>)
 8002562:	a805      	add	r0, sp, #20
 8002564:	f000 fbc4 	bl	8002cf0 <siprintf>
    while(cont_aux != strlen(message))
 8002568:	2600      	movs	r6, #0
        USART_SendData(USART2, (uint8_t) message[cont_aux]);
 800256a:	f8df 904c 	ldr.w	r9, [pc, #76]	; 80025b8 <drawPlayersTask+0x100>
    while(cont_aux != strlen(message))
 800256e:	a805      	add	r0, sp, #20
 8002570:	f7fd fdee 	bl	8000150 <strlen>
 8002574:	b2b4      	uxth	r4, r6
 8002576:	4284      	cmp	r4, r0
 8002578:	d104      	bne.n	8002584 <drawPlayersTask+0xcc>
    	vTaskDelayUntil( &xLastExecutionTime, mainFLASH_DELAY );
 800257a:	2164      	movs	r1, #100	; 0x64
 800257c:	a803      	add	r0, sp, #12
 800257e:	f7fe fccf 	bl	8000f20 <vTaskDelayUntil>
		if(last_player_position != player_position){
 8002582:	e7a2      	b.n	80024ca <drawPlayersTask+0x12>
        USART_SendData(USART2, (uint8_t) message[cont_aux]);
 8002584:	ab0a      	add	r3, sp, #40	; 0x28
 8002586:	441c      	add	r4, r3
 8002588:	4648      	mov	r0, r9
 800258a:	f814 1c14 	ldrb.w	r1, [r4, #-20]
 800258e:	f7ff f98f 	bl	80018b0 <USART_SendData>
        while(USART_GetFlagStatus(USART2, USART_FLAG_TXE) == RESET)
 8002592:	2180      	movs	r1, #128	; 0x80
 8002594:	4648      	mov	r0, r9
 8002596:	f7ff f993 	bl	80018c0 <USART_GetFlagStatus>
 800259a:	2800      	cmp	r0, #0
 800259c:	d0f9      	beq.n	8002592 <drawPlayersTask+0xda>
        cont_aux++;
 800259e:	3601      	adds	r6, #1
 80025a0:	e7e5      	b.n	800256e <drawPlayersTask+0xb6>
 80025a2:	bf00      	nop
 80025a4:	200045cc 	.word	0x200045cc
 80025a8:	2000001c 	.word	0x2000001c
 80025ac:	20004634 	.word	0x20004634
 80025b0:	08003a80 	.word	0x08003a80
 80025b4:	40013800 	.word	0x40013800
 80025b8:	40004400 	.word	0x40004400

080025bc <checkColisionsTask>:
{
 80025bc:	b58f      	push	{r0, r1, r2, r3, r7, lr}
		if(((ball_x >= LCD_WIDTH-(BALL_RADIUS+2)) && (ball_vel_x > 0)) || ((ball_x <= (BALL_RADIUS+2)) && (ball_vel_x < 0))) {
 80025be:	4f4c      	ldr	r7, [pc, #304]	; (80026f0 <checkColisionsTask+0x134>)
	xLastExecutionTime = xTaskGetTickCount();
 80025c0:	f7fe fbe2 	bl	8000d88 <xTaskGetTickCount>
 80025c4:	463d      	mov	r5, r7
 80025c6:	4c4b      	ldr	r4, [pc, #300]	; (80026f4 <checkColisionsTask+0x138>)
 80025c8:	9000      	str	r0, [sp, #0]
		if(((ball_x >= LCD_WIDTH-(BALL_RADIUS+2)) && (ball_vel_x > 0)) || ((ball_x <= (BALL_RADIUS+2)) && (ball_vel_x < 0))) {
 80025ca:	687b      	ldr	r3, [r7, #4]
 80025cc:	2b7a      	cmp	r3, #122	; 0x7a
 80025ce:	dd5b      	ble.n	8002688 <checkColisionsTask+0xcc>
 80025d0:	6823      	ldr	r3, [r4, #0]
 80025d2:	2b00      	cmp	r3, #0
 80025d4:	dc5d      	bgt.n	8002692 <checkColisionsTask+0xd6>
		if(enemyScore==3 || playerScore==3) {
 80025d6:	68a3      	ldr	r3, [r4, #8]
 80025d8:	2b03      	cmp	r3, #3
 80025da:	d002      	beq.n	80025e2 <checkColisionsTask+0x26>
 80025dc:	6863      	ldr	r3, [r4, #4]
 80025de:	2b03      	cmp	r3, #3
 80025e0:	d105      	bne.n	80025ee <checkColisionsTask+0x32>
			gameOverFlag=1;
 80025e2:	2301      	movs	r3, #1
 80025e4:	60e3      	str	r3, [r4, #12]
			vTaskResume(gameTaskHandler);
 80025e6:	4b44      	ldr	r3, [pc, #272]	; (80026f8 <checkColisionsTask+0x13c>)
 80025e8:	6818      	ldr	r0, [r3, #0]
 80025ea:	f7fe fb5d 	bl	8000ca8 <vTaskResume>
		if(ball_y >= LCD_HEIGHT-(BALL_RADIUS+2) && ball_vel_y==1){
 80025ee:	68ab      	ldr	r3, [r5, #8]
 80025f0:	2b9a      	cmp	r3, #154	; 0x9a
 80025f2:	dd0a      	ble.n	800260a <checkColisionsTask+0x4e>
 80025f4:	6828      	ldr	r0, [r5, #0]
 80025f6:	2801      	cmp	r0, #1
 80025f8:	d115      	bne.n	8002626 <checkColisionsTask+0x6a>
			resetBall();
 80025fa:	f7ff fdbd 	bl	8002178 <resetBall>
			enemyScore += 1;
 80025fe:	68a3      	ldr	r3, [r4, #8]
			ball_vel_y=1;
 8002600:	6028      	str	r0, [r5, #0]
			enemyScore += 1;
 8002602:	3301      	adds	r3, #1
 8002604:	60a3      	str	r3, [r4, #8]
			printScore();
 8002606:	f7ff fe43 	bl	8002290 <printScore>
		if(ball_y <= (BALL_RADIUS+2) && ball_vel_y==-1){
 800260a:	68ab      	ldr	r3, [r5, #8]
 800260c:	2b05      	cmp	r3, #5
 800260e:	dc0a      	bgt.n	8002626 <checkColisionsTask+0x6a>
 8002610:	6828      	ldr	r0, [r5, #0]
 8002612:	1c43      	adds	r3, r0, #1
 8002614:	d107      	bne.n	8002626 <checkColisionsTask+0x6a>
			resetBall();
 8002616:	f7ff fdaf 	bl	8002178 <resetBall>
			playerScore += 1;
 800261a:	6863      	ldr	r3, [r4, #4]
			ball_vel_y=-1;
 800261c:	6028      	str	r0, [r5, #0]
			playerScore += 1;
 800261e:	3301      	adds	r3, #1
 8002620:	6063      	str	r3, [r4, #4]
			printScore();
 8002622:	f7ff fe35 	bl	8002290 <printScore>
		if(ball_y >= 150 - (BALL_RADIUS+2) && ball_x >= player_position && ball_x <= player_position + PLAYER_WIDTH){
 8002626:	68ab      	ldr	r3, [r5, #8]
 8002628:	2b90      	cmp	r3, #144	; 0x90
 800262a:	dd36      	ble.n	800269a <checkColisionsTask+0xde>
 800262c:	f8d5 9004 	ldr.w	r9, [r5, #4]
 8002630:	692b      	ldr	r3, [r5, #16]
 8002632:	4599      	cmp	r9, r3
 8002634:	db23      	blt.n	800267e <checkColisionsTask+0xc2>
 8002636:	f103 021e 	add.w	r2, r3, #30
 800263a:	4591      	cmp	r9, r2
 800263c:	dc1f      	bgt.n	800267e <checkColisionsTask+0xc2>
	float speeds[] = {-1, 0, 1};
 800263e:	f04f 0800 	mov.w	r8, #0
 8002642:	4a2e      	ldr	r2, [pc, #184]	; (80026fc <checkColisionsTask+0x140>)
 8002644:	f10d 0a04 	add.w	sl, sp, #4
 8002648:	ca07      	ldmia	r2, {r0, r1, r2}
 800264a:	e88a 0007 	stmia.w	sl, {r0, r1, r2}
 800264e:	4642      	mov	r2, r8
 8002650:	6820      	ldr	r0, [r4, #0]
			if(ball_x >= player_position + steps*i && ball_x < player_position + steps*(i+1)){
 8002652:	4599      	cmp	r9, r3
 8002654:	f103 060a 	add.w	r6, r3, #10
 8002658:	db06      	blt.n	8002668 <checkColisionsTask+0xac>
 800265a:	45b1      	cmp	r9, r6
 800265c:	da04      	bge.n	8002668 <checkColisionsTask+0xac>
				ball_vel_x = speeds[i];
 800265e:	f85a 0028 	ldr.w	r0, [sl, r8, lsl #2]
 8002662:	f7fd fd7d 	bl	8000160 <__aeabi_f2iz>
 8002666:	2201      	movs	r2, #1
		for(i=0; i<=2; i++){
 8002668:	f108 0801 	add.w	r8, r8, #1
 800266c:	f1b8 0f03 	cmp.w	r8, #3
 8002670:	4633      	mov	r3, r6
 8002672:	d1ee      	bne.n	8002652 <checkColisionsTask+0x96>
 8002674:	b102      	cbz	r2, 8002678 <checkColisionsTask+0xbc>
 8002676:	6020      	str	r0, [r4, #0]
			ball_vel_y = -1;
 8002678:	f04f 33ff 	mov.w	r3, #4294967295
			ball_vel_y = 1;
 800267c:	602b      	str	r3, [r5, #0]
    	vTaskDelayUntil( &xLastExecutionTime, mainTEMP_DELAY );
 800267e:	2132      	movs	r1, #50	; 0x32
 8002680:	4668      	mov	r0, sp
 8002682:	f7fe fc4d 	bl	8000f20 <vTaskDelayUntil>
		if(((ball_x >= LCD_WIDTH-(BALL_RADIUS+2)) && (ball_vel_x > 0)) || ((ball_x <= (BALL_RADIUS+2)) && (ball_vel_x < 0))) {
 8002686:	e7a0      	b.n	80025ca <checkColisionsTask+0xe>
 8002688:	2b05      	cmp	r3, #5
 800268a:	dca4      	bgt.n	80025d6 <checkColisionsTask+0x1a>
 800268c:	6823      	ldr	r3, [r4, #0]
 800268e:	2b00      	cmp	r3, #0
 8002690:	daa1      	bge.n	80025d6 <checkColisionsTask+0x1a>
			ball_vel_x *= -1;
 8002692:	6823      	ldr	r3, [r4, #0]
 8002694:	425b      	negs	r3, r3
 8002696:	6023      	str	r3, [r4, #0]
 8002698:	e79d      	b.n	80025d6 <checkColisionsTask+0x1a>
		if(ball_y <= 10 + (BALL_RADIUS+2) && ball_x >= enemy_position && ball_x <= enemy_position + PLAYER_WIDTH /* && ball_vel_y==-1*/){
 800269a:	2b0f      	cmp	r3, #15
 800269c:	dcef      	bgt.n	800267e <checkColisionsTask+0xc2>
 800269e:	f8d5 9004 	ldr.w	r9, [r5, #4]
 80026a2:	68eb      	ldr	r3, [r5, #12]
 80026a4:	4599      	cmp	r9, r3
 80026a6:	dbea      	blt.n	800267e <checkColisionsTask+0xc2>
 80026a8:	f103 021e 	add.w	r2, r3, #30
 80026ac:	4591      	cmp	r9, r2
 80026ae:	dce6      	bgt.n	800267e <checkColisionsTask+0xc2>
	float speeds[] = {-1, 0, 1};
 80026b0:	f04f 0800 	mov.w	r8, #0
 80026b4:	4a11      	ldr	r2, [pc, #68]	; (80026fc <checkColisionsTask+0x140>)
 80026b6:	f10d 0a04 	add.w	sl, sp, #4
 80026ba:	ca07      	ldmia	r2, {r0, r1, r2}
 80026bc:	e88a 0007 	stmia.w	sl, {r0, r1, r2}
 80026c0:	4642      	mov	r2, r8
 80026c2:	6820      	ldr	r0, [r4, #0]
			if(ball_x >= enemy_position + steps*i && ball_x < enemy_position + steps*(i+1)){
 80026c4:	4599      	cmp	r9, r3
 80026c6:	f103 060a 	add.w	r6, r3, #10
 80026ca:	db06      	blt.n	80026da <checkColisionsTask+0x11e>
 80026cc:	45b1      	cmp	r9, r6
 80026ce:	da04      	bge.n	80026da <checkColisionsTask+0x11e>
				ball_vel_x = speeds[i];
 80026d0:	f85a 0028 	ldr.w	r0, [sl, r8, lsl #2]
 80026d4:	f7fd fd44 	bl	8000160 <__aeabi_f2iz>
 80026d8:	2201      	movs	r2, #1
		for(i=0; i<=2; i++){
 80026da:	f108 0801 	add.w	r8, r8, #1
 80026de:	f1b8 0f03 	cmp.w	r8, #3
 80026e2:	4633      	mov	r3, r6
 80026e4:	d1ee      	bne.n	80026c4 <checkColisionsTask+0x108>
 80026e6:	b102      	cbz	r2, 80026ea <checkColisionsTask+0x12e>
 80026e8:	6020      	str	r0, [r4, #0]
			ball_vel_y = 1;
 80026ea:	2301      	movs	r3, #1
 80026ec:	e7c6      	b.n	800267c <checkColisionsTask+0xc0>
 80026ee:	bf00      	nop
 80026f0:	2000001c 	.word	0x2000001c
 80026f4:	200045cc 	.word	0x200045cc
 80026f8:	20004638 	.word	0x20004638
 80026fc:	08003a60 	.word	0x08003a60

08002700 <prvSetupUSART1>:
{
 8002700:	b510      	push	{r4, lr}
    RCC_APB2PeriphClockCmd( RCC_APB2Periph_GPIOA , ENABLE );
 8002702:	2101      	movs	r1, #1
{
 8002704:	b086      	sub	sp, #24
    RCC_APB2PeriphClockCmd( RCC_APB2Periph_GPIOA , ENABLE );
 8002706:	2004      	movs	r0, #4
 8002708:	f7fe ffe0 	bl	80016cc <RCC_APB2PeriphClockCmd>
    GPIO_Init(GPIOA, &GPIO_InitStructure);
 800270c:	4c13      	ldr	r4, [pc, #76]	; (800275c <prvSetupUSART1+0x5c>)
    RCC_APB2PeriphClockCmd(RCC_APB2Periph_USART1, ENABLE);
 800270e:	2101      	movs	r1, #1
 8002710:	f44f 4080 	mov.w	r0, #16384	; 0x4000
 8002714:	f7fe ffda 	bl	80016cc <RCC_APB2PeriphClockCmd>
    GPIO_InitStructure.GPIO_Pin =  GPIO_Pin_9;
 8002718:	4b11      	ldr	r3, [pc, #68]	; (8002760 <prvSetupUSART1+0x60>)
    GPIO_Init(GPIOA, &GPIO_InitStructure);
 800271a:	4620      	mov	r0, r4
 800271c:	a901      	add	r1, sp, #4
    GPIO_InitStructure.GPIO_Pin =  GPIO_Pin_9;
 800271e:	9301      	str	r3, [sp, #4]
    GPIO_Init(GPIOA, &GPIO_InitStructure);
 8002720:	f7fe fe74 	bl	800140c <GPIO_Init>
    GPIO_InitStructure.GPIO_Pin =  GPIO_Pin_10;
 8002724:	4b0f      	ldr	r3, [pc, #60]	; (8002764 <prvSetupUSART1+0x64>)
    GPIO_Init(GPIOA, &GPIO_InitStructure);
 8002726:	4620      	mov	r0, r4
 8002728:	a901      	add	r1, sp, #4
    GPIO_InitStructure.GPIO_Pin =  GPIO_Pin_10;
 800272a:	9301      	str	r3, [sp, #4]
    GPIO_Init(GPIOA, &GPIO_InitStructure);
 800272c:	f7fe fe6e 	bl	800140c <GPIO_Init>
    USART_InitStructure.USART_WordLength = USART_WordLength_8b;
 8002730:	2300      	movs	r3, #0
 8002732:	f44f 5216 	mov.w	r2, #9600	; 0x2580
 8002736:	e9cd 2302 	strd	r2, r3, [sp, #8]
    USART_InitStructure.USART_Parity = USART_Parity_No;
 800273a:	f44f 2240 	mov.w	r2, #786432	; 0xc0000
    USART_Init(USART1, &USART_InitStructure);
 800273e:	f504 5440 	add.w	r4, r4, #12288	; 0x3000
 8002742:	4620      	mov	r0, r4
 8002744:	a902      	add	r1, sp, #8
    USART_InitStructure.USART_Parity = USART_Parity_No;
 8002746:	9204      	str	r2, [sp, #16]
    USART_InitStructure.USART_HardwareFlowControl = USART_HardwareFlowControl_None;
 8002748:	f8ad 3014 	strh.w	r3, [sp, #20]
    USART_Init(USART1, &USART_InitStructure);
 800274c:	f7ff f838 	bl	80017c0 <USART_Init>
    USART_Cmd(USART1, ENABLE);
 8002750:	2101      	movs	r1, #1
 8002752:	4620      	mov	r0, r4
 8002754:	f7ff f888 	bl	8001868 <USART_Cmd>
}
 8002758:	b006      	add	sp, #24
 800275a:	bd10      	pop	{r4, pc}
 800275c:	40010800 	.word	0x40010800
 8002760:	18030200 	.word	0x18030200
 8002764:	04030400 	.word	0x04030400

08002768 <main>:
{
 8002768:	b580      	push	{r7, lr}
 800276a:	b088      	sub	sp, #32
    RCC_DeInit();
 800276c:	f7fe feea 	bl	8001544 <RCC_DeInit>
    RCC_HSEConfig(RCC_HSE_ON);
 8002770:	f44f 3080 	mov.w	r0, #65536	; 0x10000
 8002774:	f7fe ff06 	bl	8001584 <RCC_HSEConfig>
    HSEStartUpStatus = RCC_WaitForHSEStartUp();
 8002778:	f7fe ffd4 	bl	8001724 <RCC_WaitForHSEStartUp>
    if(HSEStartUpStatus == SUCCESS)
 800277c:	2801      	cmp	r0, #1
    HSEStartUpStatus = RCC_WaitForHSEStartUp();
 800277e:	4604      	mov	r4, r0
    if(HSEStartUpStatus == SUCCESS)
 8002780:	f040 812d 	bne.w	80029de <main+0x276>
        FLASH_PrefetchBufferCmd(FLASH_PrefetchBuffer_Enable);
 8002784:	2010      	movs	r0, #16
 8002786:	f7fe fe35 	bl	80013f4 <FLASH_PrefetchBufferCmd>
        FLASH_SetLatency(FLASH_Latency_2);
 800278a:	2002      	movs	r0, #2
 800278c:	f7fe fe28 	bl	80013e0 <FLASH_SetLatency>
        RCC_HCLKConfig(RCC_SYSCLK_Div1);
 8002790:	2000      	movs	r0, #0
 8002792:	f7fe ff35 	bl	8001600 <RCC_HCLKConfig>
        RCC_PCLK1Config(RCC_HCLK_Div2);
 8002796:	f44f 6080 	mov.w	r0, #1024	; 0x400
 800279a:	f7fe ff3b 	bl	8001614 <RCC_PCLK1Config>
        RCC_PCLK2Config(RCC_HCLK_Div1);
 800279e:	2000      	movs	r0, #0
 80027a0:	f7fe ff42 	bl	8001628 <RCC_PCLK2Config>
        RCC_PLLConfig(RCC_PLLSource_HSE_Div1, RCC_PLLMul_6);
 80027a4:	f44f 3080 	mov.w	r0, #65536	; 0x10000
 80027a8:	f44f 1180 	mov.w	r1, #1048576	; 0x100000
 80027ac:	f7fe ff06 	bl	80015bc <RCC_PLLConfig>
        RCC_PLLCmd(ENABLE);
 80027b0:	4620      	mov	r0, r4
 80027b2:	f7fe ff0d 	bl	80015d0 <RCC_PLLCmd>
        while (RCC_GetFlagStatus(RCC_FLAG_PLLRDY) == RESET );
 80027b6:	2039      	movs	r0, #57	; 0x39
 80027b8:	f7fe ffa0 	bl	80016fc <RCC_GetFlagStatus>
 80027bc:	2800      	cmp	r0, #0
 80027be:	d0fa      	beq.n	80027b6 <main+0x4e>
        RCC_SYSCLKConfig(RCC_SYSCLKSource_PLLCLK);
 80027c0:	2002      	movs	r0, #2
 80027c2:	f7fe ff0b 	bl	80015dc <RCC_SYSCLKConfig>
        while( RCC_GetSYSCLKSource() != 0x08 );
 80027c6:	f7fe ff13 	bl	80015f0 <RCC_GetSYSCLKSource>
 80027ca:	2808      	cmp	r0, #8
 80027cc:	4604      	mov	r4, r0
 80027ce:	d1fa      	bne.n	80027c6 <main+0x5e>
    RCC_APB2PeriphClockCmd( RCC_APB2Periph_GPIOA , ENABLE );
 80027d0:	2101      	movs	r1, #1
 80027d2:	2004      	movs	r0, #4
 80027d4:	f7fe ff7a 	bl	80016cc <RCC_APB2PeriphClockCmd>
    RCC_APB2PeriphClockCmd( RCC_APB2Periph_GPIOB , ENABLE );
 80027d8:	4620      	mov	r0, r4
 80027da:	2101      	movs	r1, #1
 80027dc:	f7fe ff76 	bl	80016cc <RCC_APB2PeriphClockCmd>
    RCC_APB2PeriphClockCmd( RCC_APB2Periph_GPIOC , ENABLE );
 80027e0:	2101      	movs	r1, #1
 80027e2:	2010      	movs	r0, #16
 80027e4:	f7fe ff72 	bl	80016cc <RCC_APB2PeriphClockCmd>
    GPIO_InitStructure.GPIO_Pin =  GPIO_Pin_13 | GPIO_Pin_11;
 80027e8:	4b7d      	ldr	r3, [pc, #500]	; (80029e0 <main+0x278>)
	GPIO_Init(GPIOC, &GPIO_InitStructure);
 80027ea:	487e      	ldr	r0, [pc, #504]	; (80029e4 <main+0x27c>)
 80027ec:	a904      	add	r1, sp, #16
    GPIO_InitStructure.GPIO_Pin =  GPIO_Pin_13 | GPIO_Pin_11;
 80027ee:	9304      	str	r3, [sp, #16]
	GPIO_Init(GPIOC, &GPIO_InitStructure);
 80027f0:	f7fe fe0c 	bl	800140c <GPIO_Init>
	GPIO_InitStructure.GPIO_Pin =  GPIO_Pin_1;
 80027f4:	4b7c      	ldr	r3, [pc, #496]	; (80029e8 <main+0x280>)
	GPIO_Init(GPIOA, &GPIO_InitStructure);
 80027f6:	487d      	ldr	r0, [pc, #500]	; (80029ec <main+0x284>)
 80027f8:	a904      	add	r1, sp, #16
	GPIO_InitStructure.GPIO_Pin =  GPIO_Pin_1;
 80027fa:	9304      	str	r3, [sp, #16]
	GPIO_Init(GPIOA, &GPIO_InitStructure);
 80027fc:	f7fe fe06 	bl	800140c <GPIO_Init>
    GPIO_InitStructure.GPIO_Pin =  GPIO_Pin_0 | GPIO_Pin_1;
 8002800:	4b7b      	ldr	r3, [pc, #492]	; (80029f0 <main+0x288>)
    GPIO_Init(GPIOB, &GPIO_InitStructure);
 8002802:	487c      	ldr	r0, [pc, #496]	; (80029f4 <main+0x28c>)
 8002804:	a904      	add	r1, sp, #16
    GPIO_InitStructure.GPIO_Pin =  GPIO_Pin_0 | GPIO_Pin_1;
 8002806:	9304      	str	r3, [sp, #16]
    GPIO_Init(GPIOB, &GPIO_InitStructure);
 8002808:	f7fe fe00 	bl	800140c <GPIO_Init>
    RCC_APB2PeriphClockCmd( RCC_APB2Periph_GPIOA , ENABLE );
 800280c:	2101      	movs	r1, #1
 800280e:	2004      	movs	r0, #4
 8002810:	f7fe ff5c 	bl	80016cc <RCC_APB2PeriphClockCmd>
    RCC_APB1PeriphClockCmd(RCC_APB1Periph_USART2, ENABLE);
 8002814:	2101      	movs	r1, #1
 8002816:	f44f 3000 	mov.w	r0, #131072	; 0x20000
 800281a:	f7fe ff63 	bl	80016e4 <RCC_APB1PeriphClockCmd>
    GPIO_InitStructure.GPIO_Pin =  GPIO_Pin_2;
 800281e:	4b76      	ldr	r3, [pc, #472]	; (80029f8 <main+0x290>)
    GPIO_Init(GPIOA, &GPIO_InitStructure);
 8002820:	4872      	ldr	r0, [pc, #456]	; (80029ec <main+0x284>)
 8002822:	a903      	add	r1, sp, #12
    GPIO_InitStructure.GPIO_Pin =  GPIO_Pin_2;
 8002824:	9303      	str	r3, [sp, #12]
    GPIO_Init(GPIOA, &GPIO_InitStructure);
 8002826:	f7fe fdf1 	bl	800140c <GPIO_Init>
    GPIO_InitStructure.GPIO_Pin =  GPIO_Pin_3;
 800282a:	4b74      	ldr	r3, [pc, #464]	; (80029fc <main+0x294>)
    GPIO_Init(GPIOA, &GPIO_InitStructure);
 800282c:	486f      	ldr	r0, [pc, #444]	; (80029ec <main+0x284>)
 800282e:	a903      	add	r1, sp, #12
    USART_InitStructure.USART_WordLength = USART_WordLength_8b;
 8002830:	2400      	movs	r4, #0
    GPIO_InitStructure.GPIO_Pin =  GPIO_Pin_3;
 8002832:	9303      	str	r3, [sp, #12]
    GPIO_Init(GPIOA, &GPIO_InitStructure);
 8002834:	f7fe fdea 	bl	800140c <GPIO_Init>
    USART_InitStructure.USART_WordLength = USART_WordLength_8b;
 8002838:	f44f 33e1 	mov.w	r3, #115200	; 0x1c200
 800283c:	e9cd 3404 	strd	r3, r4, [sp, #16]
    USART_InitStructure.USART_Parity = USART_Parity_No;
 8002840:	f44f 2340 	mov.w	r3, #786432	; 0xc0000
    USART_Init(USART2, &USART_InitStructure);
 8002844:	486e      	ldr	r0, [pc, #440]	; (8002a00 <main+0x298>)
 8002846:	a904      	add	r1, sp, #16
    USART_InitStructure.USART_Parity = USART_Parity_No;
 8002848:	9306      	str	r3, [sp, #24]
    USART_InitStructure.USART_HardwareFlowControl = USART_HardwareFlowControl_None;
 800284a:	f8ad 401c 	strh.w	r4, [sp, #28]
    USART_Init(USART2, &USART_InitStructure);
 800284e:	f7fe ffb7 	bl	80017c0 <USART_Init>
    USART_Cmd(USART2, ENABLE);
 8002852:	2101      	movs	r1, #1
 8002854:	486a      	ldr	r0, [pc, #424]	; (8002a00 <main+0x298>)
 8002856:	f7ff f807 	bl	8001868 <USART_Cmd>
	prvSetupUSART1();
 800285a:	f7ff ff51 	bl	8002700 <prvSetupUSART1>
    RCC_APB2PeriphClockCmd(RCC_APB2Periph_AFIO,  ENABLE);
 800285e:	2101      	movs	r1, #1
 8002860:	4608      	mov	r0, r1
 8002862:	f7fe ff33 	bl	80016cc <RCC_APB2PeriphClockCmd>
    GPIO_EXTILineConfig(GPIO_PortSourceGPIOC, GPIO_PinSource13);
 8002866:	210d      	movs	r1, #13
 8002868:	2002      	movs	r0, #2
 800286a:	f7fe fe55 	bl	8001518 <GPIO_EXTILineConfig>
    GPIO_EXTILineConfig(GPIO_PortSourceGPIOC, GPIO_PinSource11);
 800286e:	210b      	movs	r1, #11
 8002870:	2002      	movs	r0, #2
 8002872:	f7fe fe51 	bl	8001518 <GPIO_EXTILineConfig>
    GPIO_EXTILineConfig(GPIO_PortSourceGPIOA, GPIO_PinSource1);
 8002876:	2101      	movs	r1, #1
 8002878:	4620      	mov	r0, r4
 800287a:	f7fe fe4d 	bl	8001518 <GPIO_EXTILineConfig>
	EXTI1_InitStructure.EXTI_Line = EXTI_Line13 | EXTI_Line11 | EXTI_Line1;
 800287e:	f642 0302 	movw	r3, #10242	; 0x2802
	EXTI1_InitStructure.EXTI_LineCmd = ENABLE;
 8002882:	2501      	movs	r5, #1
	EXTI1_InitStructure.EXTI_Line = EXTI_Line13 | EXTI_Line11 | EXTI_Line1;
 8002884:	9304      	str	r3, [sp, #16]
	EXTI1_InitStructure.EXTI_Mode = EXTI_Mode_Interrupt;
 8002886:	f44f 6340 	mov.w	r3, #3072	; 0xc00
	EXTI_Init(&EXTI1_InitStructure);
 800288a:	a804      	add	r0, sp, #16
	EXTI1_InitStructure.EXTI_Mode = EXTI_Mode_Interrupt;
 800288c:	f8ad 3014 	strh.w	r3, [sp, #20]
	EXTI1_InitStructure.EXTI_LineCmd = ENABLE;
 8002890:	f88d 5016 	strb.w	r5, [sp, #22]
	EXTI_Init(&EXTI1_InitStructure);
 8002894:	f7fe fd68 	bl	8001368 <EXTI_Init>
    RCC_APB2PeriphClockCmd(RCC_APB2Periph_AFIO,  DISABLE);
 8002898:	4621      	mov	r1, r4
 800289a:	4628      	mov	r0, r5
 800289c:	f7fe ff16 	bl	80016cc <RCC_APB2PeriphClockCmd>
	NVIC_PriorityGroupConfig(NVIC_PriorityGroup_1);
 80028a0:	f44f 60c0 	mov.w	r0, #1536	; 0x600
 80028a4:	f7fe fd2a 	bl	80012fc <NVIC_PriorityGroupConfig>
	NVIC_EXTI1_InitStructure.NVIC_IRQChannel = EXTI15_10_IRQn;
 80028a8:	4b56      	ldr	r3, [pc, #344]	; (8002a04 <main+0x29c>)
	NVIC_Init(&NVIC_EXTI1_InitStructure);
 80028aa:	a803      	add	r0, sp, #12
	NVIC_EXTI1_InitStructure.NVIC_IRQChannel = EXTI15_10_IRQn;
 80028ac:	9303      	str	r3, [sp, #12]
	NVIC_Init(&NVIC_EXTI1_InitStructure);
 80028ae:	f7fe fd2f 	bl	8001310 <NVIC_Init>
	NVIC_EXTI1_InitStructure.NVIC_IRQChannel = EXTI1_IRQn;
 80028b2:	2307      	movs	r3, #7
	NVIC_Init(&NVIC_EXTI1_InitStructure);
 80028b4:	a803      	add	r0, sp, #12
	NVIC_EXTI1_InitStructure.NVIC_IRQChannel = EXTI1_IRQn;
 80028b6:	f88d 300c 	strb.w	r3, [sp, #12]
	NVIC_Init(&NVIC_EXTI1_InitStructure);
 80028ba:	f7fe fd29 	bl	8001310 <NVIC_Init>
	USART_ITConfig(USART1, USART_IT_RXNE, ENABLE);
 80028be:	f240 5125 	movw	r1, #1317	; 0x525
 80028c2:	4851      	ldr	r0, [pc, #324]	; (8002a08 <main+0x2a0>)
 80028c4:	462a      	mov	r2, r5
 80028c6:	f7fe ffdb 	bl	8001880 <USART_ITConfig>
 * Enable a device specific interupt in the NVIC interrupt controller.
 * The interrupt number cannot be a negative value.
 */
static __INLINE void NVIC_EnableIRQ(IRQn_Type IRQn)
{
  NVIC->ISER[((uint32_t)(IRQn) >> 5)] = (1 << ((uint32_t)(IRQn) & 0x1F)); /* enable interrupt */
 80028ca:	2220      	movs	r2, #32
 80028cc:	4b4f      	ldr	r3, [pc, #316]	; (8002a0c <main+0x2a4>)
 	xTaskCreate( drawPlayersTask, "Player", configMINIMAL_STACK_SIZE, NULL, mainFLASH_TASK_PRIORITY+1, &playerTaskHandler );
 80028ce:	f8df 919c 	ldr.w	r9, [pc, #412]	; 8002a6c <main+0x304>
 80028d2:	605a      	str	r2, [r3, #4]
	lcd_init();
 80028d4:	f7ff f8ee 	bl	8001ab4 <lcd_init>
	clearLcd();
 80028d8:	f7ff fc8a 	bl	80021f0 <clearLcd>
	xSemaphore = xSemaphoreCreateBinary();
 80028dc:	2203      	movs	r2, #3
 80028de:	4621      	mov	r1, r4
 80028e0:	4628      	mov	r0, r5
 80028e2:	f7fd fea7 	bl	8000634 <xQueueGenericCreate>
 80028e6:	4b4a      	ldr	r3, [pc, #296]	; (8002a10 <main+0x2a8>)
	pairingSemaphore = xSemaphoreCreateBinary();
 80028e8:	2203      	movs	r2, #3
	xSemaphore = xSemaphoreCreateBinary();
 80028ea:	6018      	str	r0, [r3, #0]
	pairingSemaphore = xSemaphoreCreateBinary();
 80028ec:	4621      	mov	r1, r4
 80028ee:	4628      	mov	r0, r5
 80028f0:	f7fd fea0 	bl	8000634 <xQueueGenericCreate>
 80028f4:	4b47      	ldr	r3, [pc, #284]	; (8002a14 <main+0x2ac>)
	usartSemaphore = xSemaphoreCreateBinary();
 80028f6:	2203      	movs	r2, #3
	pairingSemaphore = xSemaphoreCreateBinary();
 80028f8:	6018      	str	r0, [r3, #0]
	usartSemaphore = xSemaphoreCreateBinary();
 80028fa:	4621      	mov	r1, r4
 80028fc:	4628      	mov	r0, r5
 80028fe:	f7fd fe99 	bl	8000634 <xQueueGenericCreate>
 8002902:	4b45      	ldr	r3, [pc, #276]	; (8002a18 <main+0x2b0>)
	queueusart1=xQueueCreate( 50, sizeof(msg) );
 8002904:	4622      	mov	r2, r4
	usartSemaphore = xSemaphoreCreateBinary();
 8002906:	6018      	str	r0, [r3, #0]
	queueusart1=xQueueCreate( 50, sizeof(msg) );
 8002908:	210c      	movs	r1, #12
 800290a:	2032      	movs	r0, #50	; 0x32
 800290c:	f7fd fe92 	bl	8000634 <xQueueGenericCreate>
 8002910:	4b42      	ldr	r3, [pc, #264]	; (8002a1c <main+0x2b4>)
	queueusendusart1=xQueueCreate( 5, sizeof(uint16_t) );
 8002912:	4622      	mov	r2, r4
	queueusart1=xQueueCreate( 50, sizeof(msg) );
 8002914:	6018      	str	r0, [r3, #0]
	queueusendusart1=xQueueCreate( 5, sizeof(uint16_t) );
 8002916:	2102      	movs	r1, #2
 8002918:	2005      	movs	r0, #5
 800291a:	f7fd fe8b 	bl	8000634 <xQueueGenericCreate>
 800291e:	4b40      	ldr	r3, [pc, #256]	; (8002a20 <main+0x2b8>)
 	xTaskCreate( drawPlayersTask, "Player", configMINIMAL_STACK_SIZE, NULL, mainFLASH_TASK_PRIORITY+1, &playerTaskHandler );
 8002920:	2280      	movs	r2, #128	; 0x80
	queueusendusart1=xQueueCreate( 5, sizeof(uint16_t) );
 8002922:	6018      	str	r0, [r3, #0]
 	xTaskCreate( drawPlayersTask, "Player", configMINIMAL_STACK_SIZE, NULL, mainFLASH_TASK_PRIORITY+1, &playerTaskHandler );
 8002924:	2302      	movs	r3, #2
 8002926:	493f      	ldr	r1, [pc, #252]	; (8002a24 <main+0x2bc>)
 8002928:	9300      	str	r3, [sp, #0]
 800292a:	483f      	ldr	r0, [pc, #252]	; (8002a28 <main+0x2c0>)
 800292c:	4623      	mov	r3, r4
 800292e:	f8cd 9004 	str.w	r9, [sp, #4]
 8002932:	f7fe f8f7 	bl	8000b24 <xTaskCreate>
 	xTaskCreate( updateBallTask, "Ball", configMINIMAL_STACK_SIZE, NULL, mainFLASH_TASK_PRIORITY+2, &ballTaskHandler );
 8002936:	2303      	movs	r3, #3
 8002938:	f8df 8134 	ldr.w	r8, [pc, #308]	; 8002a70 <main+0x308>
 	xTaskCreate( checkColisionsTask, "collisions", configMINIMAL_STACK_SIZE, NULL, mainFLASH_TASK_PRIORITY, &checkColisionsTaskHandler );
 800293c:	4f3b      	ldr	r7, [pc, #236]	; (8002a2c <main+0x2c4>)
 	xTaskCreate( updateBallTask, "Ball", configMINIMAL_STACK_SIZE, NULL, mainFLASH_TASK_PRIORITY+2, &ballTaskHandler );
 800293e:	2280      	movs	r2, #128	; 0x80
 8002940:	493b      	ldr	r1, [pc, #236]	; (8002a30 <main+0x2c8>)
 	xTaskCreate( gameEndingTask, "gameEnd", configMINIMAL_STACK_SIZE, NULL, mainFLASH_TASK_PRIORITY, &gameTaskHandler );
 8002942:	4e3c      	ldr	r6, [pc, #240]	; (8002a34 <main+0x2cc>)
 	xTaskCreate( updateBallTask, "Ball", configMINIMAL_STACK_SIZE, NULL, mainFLASH_TASK_PRIORITY+2, &ballTaskHandler );
 8002944:	9300      	str	r3, [sp, #0]
 8002946:	483c      	ldr	r0, [pc, #240]	; (8002a38 <main+0x2d0>)
 8002948:	4623      	mov	r3, r4
 800294a:	f8cd 8004 	str.w	r8, [sp, #4]
 800294e:	f7fe f8e9 	bl	8000b24 <xTaskCreate>
 	xTaskCreate( checkColisionsTask, "collisions", configMINIMAL_STACK_SIZE, NULL, mainFLASH_TASK_PRIORITY, &checkColisionsTaskHandler );
 8002952:	4623      	mov	r3, r4
 8002954:	2280      	movs	r2, #128	; 0x80
 8002956:	4939      	ldr	r1, [pc, #228]	; (8002a3c <main+0x2d4>)
 8002958:	e9cd 5700 	strd	r5, r7, [sp]
 800295c:	4838      	ldr	r0, [pc, #224]	; (8002a40 <main+0x2d8>)
 800295e:	f7fe f8e1 	bl	8000b24 <xTaskCreate>
 	xTaskCreate( gameEndingTask, "gameEnd", configMINIMAL_STACK_SIZE, NULL, mainFLASH_TASK_PRIORITY, &gameTaskHandler );
 8002962:	4623      	mov	r3, r4
 8002964:	2280      	movs	r2, #128	; 0x80
 8002966:	4937      	ldr	r1, [pc, #220]	; (8002a44 <main+0x2dc>)
 8002968:	e9cd 5600 	strd	r5, r6, [sp]
 800296c:	4836      	ldr	r0, [pc, #216]	; (8002a48 <main+0x2e0>)
 800296e:	f7fe f8d9 	bl	8000b24 <xTaskCreate>
 	xTaskCreate( pairingTask, "pairing", configMINIMAL_STACK_SIZE, NULL, mainFLASH_TASK_PRIORITY, &pairingTaskHandler );
 8002972:	4b36      	ldr	r3, [pc, #216]	; (8002a4c <main+0x2e4>)
 8002974:	2280      	movs	r2, #128	; 0x80
 8002976:	e9cd 5300 	strd	r5, r3, [sp]
 800297a:	4935      	ldr	r1, [pc, #212]	; (8002a50 <main+0x2e8>)
 800297c:	4623      	mov	r3, r4
 800297e:	4835      	ldr	r0, [pc, #212]	; (8002a54 <main+0x2ec>)
 8002980:	f7fe f8d0 	bl	8000b24 <xTaskCreate>
 	xTaskCreate( flash, "flash", configMINIMAL_STACK_SIZE, NULL, mainFLASH_TASK_PRIORITY, &handler );
 8002984:	4b34      	ldr	r3, [pc, #208]	; (8002a58 <main+0x2f0>)
 8002986:	2280      	movs	r2, #128	; 0x80
 8002988:	4934      	ldr	r1, [pc, #208]	; (8002a5c <main+0x2f4>)
 800298a:	e9cd 5300 	strd	r5, r3, [sp]
 800298e:	4834      	ldr	r0, [pc, #208]	; (8002a60 <main+0x2f8>)
 8002990:	4623      	mov	r3, r4
 8002992:	f7fe f8c7 	bl	8000b24 <xTaskCreate>
	vTaskSuspend(playerTaskHandler);
 8002996:	f8d9 0000 	ldr.w	r0, [r9]
 800299a:	f7fe fb0f 	bl	8000fbc <vTaskSuspend>
	vTaskSuspend(ballTaskHandler);
 800299e:	f8d8 0000 	ldr.w	r0, [r8]
 80029a2:	f7fe fb0b 	bl	8000fbc <vTaskSuspend>
	vTaskSuspend(checkColisionsTaskHandler);
 80029a6:	6838      	ldr	r0, [r7, #0]
 80029a8:	f7fe fb08 	bl	8000fbc <vTaskSuspend>
 	vTaskSuspend(gameTaskHandler);
 80029ac:	6830      	ldr	r0, [r6, #0]
 80029ae:	f7fe fb05 	bl	8000fbc <vTaskSuspend>
	clearLcd();
 80029b2:	f7ff fc1d 	bl	80021f0 <clearLcd>
	lcd_draw_string(20, 40, "PONG", 0xffff, 4);
 80029b6:	2304      	movs	r3, #4
 80029b8:	2128      	movs	r1, #40	; 0x28
 80029ba:	2014      	movs	r0, #20
 80029bc:	4a29      	ldr	r2, [pc, #164]	; (8002a64 <main+0x2fc>)
 80029be:	9300      	str	r3, [sp, #0]
 80029c0:	f64f 73ff 	movw	r3, #65535	; 0xffff
 80029c4:	f7ff fb28 	bl	8002018 <lcd_draw_string>
	lcd_draw_string(25, 140, "Pairing ...", 0xffff, 1);
 80029c8:	f64f 73ff 	movw	r3, #65535	; 0xffff
 80029cc:	218c      	movs	r1, #140	; 0x8c
 80029ce:	2019      	movs	r0, #25
 80029d0:	4a25      	ldr	r2, [pc, #148]	; (8002a68 <main+0x300>)
 80029d2:	9500      	str	r5, [sp, #0]
 80029d4:	f7ff fb20 	bl	8002018 <lcd_draw_string>
	vTaskStartScheduler();
 80029d8:	f7fe f9a2 	bl	8000d20 <vTaskStartScheduler>
	while(1);
 80029dc:	e7fe      	b.n	80029dc <main+0x274>
        while(1);
 80029de:	e7fe      	b.n	80029de <main+0x276>
 80029e0:	48032800 	.word	0x48032800
 80029e4:	40011000 	.word	0x40011000
 80029e8:	48030002 	.word	0x48030002
 80029ec:	40010800 	.word	0x40010800
 80029f0:	10030003 	.word	0x10030003
 80029f4:	40010c00 	.word	0x40010c00
 80029f8:	18030004 	.word	0x18030004
 80029fc:	04030008 	.word	0x04030008
 8002a00:	40004400 	.word	0x40004400
 8002a04:	01000028 	.word	0x01000028
 8002a08:	40013800 	.word	0x40013800
 8002a0c:	e000e100 	.word	0xe000e100
 8002a10:	20004618 	.word	0x20004618
 8002a14:	20004610 	.word	0x20004610
 8002a18:	20004630 	.word	0x20004630
 8002a1c:	20004640 	.word	0x20004640
 8002a20:	20004634 	.word	0x20004634
 8002a24:	08003a84 	.word	0x08003a84
 8002a28:	080024b9 	.word	0x080024b9
 8002a2c:	20004654 	.word	0x20004654
 8002a30:	08003a8b 	.word	0x08003a8b
 8002a34:	20004638 	.word	0x20004638
 8002a38:	080022c9 	.word	0x080022c9
 8002a3c:	08003a90 	.word	0x08003a90
 8002a40:	080025bd 	.word	0x080025bd
 8002a44:	08003a9b 	.word	0x08003a9b
 8002a48:	080023f5 	.word	0x080023f5
 8002a4c:	2000460c 	.word	0x2000460c
 8002a50:	08003aa3 	.word	0x08003aa3
 8002a54:	080023bd 	.word	0x080023bd
 8002a58:	2000463c 	.word	0x2000463c
 8002a5c:	08003aab 	.word	0x08003aab
 8002a60:	08002195 	.word	0x08002195
 8002a64:	08003ab1 	.word	0x08003ab1
 8002a68:	08003ab6 	.word	0x08003ab6
 8002a6c:	20004650 	.word	0x20004650
 8002a70:	20004614 	.word	0x20004614

08002a74 <WWDG_IRQHandler>:
 8002a74:	4770      	bx	lr

08002a76 <PVD_IRQHandler>:
 8002a76:	4770      	bx	lr

08002a78 <TAMPER_IRQHandler>:
 8002a78:	4770      	bx	lr

08002a7a <RTC_IRQHandler>:
 8002a7a:	4770      	bx	lr

08002a7c <FLASH_IRQHandler>:
 8002a7c:	4770      	bx	lr

08002a7e <RCC_IRQHandler>:
 8002a7e:	4770      	bx	lr

08002a80 <EXTI0_IRQHandler>:
 8002a80:	4770      	bx	lr
	...

08002a84 <EXTI1_IRQHandler>:

void EXTI1_IRQHandler()
{
	static BaseType_t pxHigherPriorityTaskToken;

	xSemaphoreGiveFromISR( xSemaphore, &pxHigherPriorityTaskToken);
 8002a84:	4b0b      	ldr	r3, [pc, #44]	; (8002ab4 <EXTI1_IRQHandler+0x30>)
{
 8002a86:	b510      	push	{r4, lr}
	xSemaphoreGiveFromISR( xSemaphore, &pxHigherPriorityTaskToken);
 8002a88:	4c0b      	ldr	r4, [pc, #44]	; (8002ab8 <EXTI1_IRQHandler+0x34>)
 8002a8a:	6818      	ldr	r0, [r3, #0]
 8002a8c:	4621      	mov	r1, r4
 8002a8e:	f7fd fe9f 	bl	80007d0 <xQueueGiveFromISR>
	if(pxHigherPriorityTaskToken == pdTRUE)
 8002a92:	6823      	ldr	r3, [r4, #0]
 8002a94:	2b01      	cmp	r3, #1
 8002a96:	d107      	bne.n	8002aa8 <EXTI1_IRQHandler+0x24>
		taskYIELD();
 8002a98:	f04f 5280 	mov.w	r2, #268435456	; 0x10000000
 8002a9c:	4b07      	ldr	r3, [pc, #28]	; (8002abc <EXTI1_IRQHandler+0x38>)
 8002a9e:	601a      	str	r2, [r3, #0]
 8002aa0:	f3bf 8f4f 	dsb	sy
 8002aa4:	f3bf 8f6f 	isb	sy
	EXTI_ClearITPendingBit(EXTI_Line1);
 8002aa8:	2002      	movs	r0, #2
}
 8002aaa:	e8bd 4010 	ldmia.w	sp!, {r4, lr}
	EXTI_ClearITPendingBit(EXTI_Line1);
 8002aae:	f7fe bc91 	b.w	80013d4 <EXTI_ClearITPendingBit>
 8002ab2:	bf00      	nop
 8002ab4:	20004618 	.word	0x20004618
 8002ab8:	200045e8 	.word	0x200045e8
 8002abc:	e000ed04 	.word	0xe000ed04

08002ac0 <EXTI2_IRQHandler>:
 8002ac0:	4770      	bx	lr

08002ac2 <EXTI3_IRQHandler>:
 8002ac2:	4770      	bx	lr

08002ac4 <EXTI4_IRQHandler>:
 8002ac4:	4770      	bx	lr

08002ac6 <DMA1_Channel1_IRQHandler>:
 8002ac6:	4770      	bx	lr

08002ac8 <DMA1_Channel2_IRQHandler>:
 8002ac8:	4770      	bx	lr

08002aca <DMA1_Channel3_IRQHandler>:
 8002aca:	4770      	bx	lr

08002acc <DMA1_Channel4_IRQHandler>:
 8002acc:	4770      	bx	lr

08002ace <DMA1_Channel5_IRQHandler>:
 8002ace:	4770      	bx	lr

08002ad0 <DMA1_Channel6_IRQHandler>:
 8002ad0:	4770      	bx	lr

08002ad2 <DMA1_Channel7_IRQHandler>:
 8002ad2:	4770      	bx	lr

08002ad4 <ADC1_2_IRQHandler>:
 8002ad4:	4770      	bx	lr

08002ad6 <EXTI9_5_IRQHandler>:
 8002ad6:	4770      	bx	lr

08002ad8 <TIM1_BRK_IRQHandler>:
 8002ad8:	4770      	bx	lr

08002ada <TIM1_UP_IRQHandler>:
 8002ada:	4770      	bx	lr

08002adc <TIM1_TRG_COM_IRQHandler>:
 8002adc:	4770      	bx	lr

08002ade <TIM1_CC_IRQHandler>:
 8002ade:	4770      	bx	lr

08002ae0 <TIM2_IRQHandler>:
 8002ae0:	4770      	bx	lr

08002ae2 <TIM3_IRQHandler>:
 8002ae2:	4770      	bx	lr

08002ae4 <TIM4_IRQHandler>:
 8002ae4:	4770      	bx	lr

08002ae6 <I2C1_EV_IRQHandler>:
 8002ae6:	4770      	bx	lr

08002ae8 <I2C1_ER_IRQHandler>:
 8002ae8:	4770      	bx	lr

08002aea <I2C2_EV_IRQHandler>:
 8002aea:	4770      	bx	lr

08002aec <I2C2_ER_IRQHandler>:
 8002aec:	4770      	bx	lr

08002aee <SPI1_IRQHandler>:
 8002aee:	4770      	bx	lr

08002af0 <SPI2_IRQHandler>:
 8002af0:	4770      	bx	lr
	...

08002af4 <USART1_IRQHandler>:
* Input          : None
* Output         : None
* Return         : None
*******************************************************************************/
void USART1_IRQHandler(void)
{
 8002af4:	b510      	push	{r4, lr}
	uint16_t RxData;
	static BaseType_t pxHigherPriorityTaskWoken;

	while( USART_GetFlagStatus(USART1, USART_FLAG_RXNE) == RESET );
 8002af6:	4c24      	ldr	r4, [pc, #144]	; (8002b88 <USART1_IRQHandler+0x94>)
 8002af8:	2120      	movs	r1, #32
 8002afa:	4620      	mov	r0, r4
 8002afc:	f7fe fee0 	bl	80018c0 <USART_GetFlagStatus>
 8002b00:	2800      	cmp	r0, #0
 8002b02:	d0f9      	beq.n	8002af8 <USART1_IRQHandler+0x4>
	RxData = USART_ReceiveData(USART1);
 8002b04:	4820      	ldr	r0, [pc, #128]	; (8002b88 <USART1_IRQHandler+0x94>)
 8002b06:	f7fe fed7 	bl	80018b8 <USART_ReceiveData>


	data[data_indx] = (int) RxData;
 8002b0a:	4c20      	ldr	r4, [pc, #128]	; (8002b8c <USART1_IRQHandler+0x98>)
 8002b0c:	4a20      	ldr	r2, [pc, #128]	; (8002b90 <USART1_IRQHandler+0x9c>)
 8002b0e:	6863      	ldr	r3, [r4, #4]
 8002b10:	f842 0023 	str.w	r0, [r2, r3, lsl #2]
	data_indx ++;
 8002b14:	3301      	adds	r3, #1
	if(data_indx==3){
 8002b16:	2b03      	cmp	r3, #3
	data_indx ++;
 8002b18:	6063      	str	r3, [r4, #4]
	if(data_indx==3){
 8002b1a:	d111      	bne.n	8002b40 <USART1_IRQHandler+0x4c>
		if(data[0] == 0xFA && data[1] == 0xFA && data[2] == 0xFA){
 8002b1c:	6813      	ldr	r3, [r2, #0]
 8002b1e:	2bfa      	cmp	r3, #250	; 0xfa
 8002b20:	d119      	bne.n	8002b56 <USART1_IRQHandler+0x62>
 8002b22:	6853      	ldr	r3, [r2, #4]
 8002b24:	2bfa      	cmp	r3, #250	; 0xfa
 8002b26:	d116      	bne.n	8002b56 <USART1_IRQHandler+0x62>
 8002b28:	6893      	ldr	r3, [r2, #8]
 8002b2a:	2bfa      	cmp	r3, #250	; 0xfa
 8002b2c:	d113      	bne.n	8002b56 <USART1_IRQHandler+0x62>
			xSemaphoreGive(pairingSemaphore);
 8002b2e:	2300      	movs	r3, #0
 8002b30:	4818      	ldr	r0, [pc, #96]	; (8002b94 <USART1_IRQHandler+0xa0>)
 8002b32:	461a      	mov	r2, r3
 8002b34:	4619      	mov	r1, r3
 8002b36:	6800      	ldr	r0, [r0, #0]
 8002b38:	f7fd fd94 	bl	8000664 <xQueueGenericSend>
			xSemaphoreGiveFromISR(usartSemaphore, &pxHigherPriorityTaskToken);


			if(pxHigherPriorityTaskToken == pdTRUE) taskYIELD();
		}
		data_indx=0;
 8002b3c:	2300      	movs	r3, #0
 8002b3e:	6063      	str	r3, [r4, #4]
	}

	USART_ClearFlag(USART1, USART_FLAG_RXNE);
 8002b40:	2120      	movs	r1, #32
 8002b42:	4811      	ldr	r0, [pc, #68]	; (8002b88 <USART1_IRQHandler+0x94>)
 8002b44:	f7fe fec2 	bl	80018cc <USART_ClearFlag>

	USART_ClearITPendingBit(USART1, USART_IT_RXNE);
	if ( pxHigherPriorityTaskWoken == pdTRUE )
		taskYIELD();
}
 8002b48:	e8bd 4010 	ldmia.w	sp!, {r4, lr}
	USART_ClearITPendingBit(USART1, USART_IT_RXNE);
 8002b4c:	f240 5125 	movw	r1, #1317	; 0x525
 8002b50:	480d      	ldr	r0, [pc, #52]	; (8002b88 <USART1_IRQHandler+0x94>)
 8002b52:	f7fe bebf 	b.w	80018d4 <USART_ClearITPendingBit>
			xQueueSendToBackFromISR(queueusart1, (void *) &data, &pxHigherPriorityTaskToken);
 8002b56:	4810      	ldr	r0, [pc, #64]	; (8002b98 <USART1_IRQHandler+0xa4>)
 8002b58:	2300      	movs	r3, #0
 8002b5a:	4a10      	ldr	r2, [pc, #64]	; (8002b9c <USART1_IRQHandler+0xa8>)
 8002b5c:	490c      	ldr	r1, [pc, #48]	; (8002b90 <USART1_IRQHandler+0x9c>)
 8002b5e:	6800      	ldr	r0, [r0, #0]
 8002b60:	f7fd fe02 	bl	8000768 <xQueueGenericSendFromISR>
			xSemaphoreGiveFromISR(usartSemaphore, &pxHigherPriorityTaskToken);
 8002b64:	4b0e      	ldr	r3, [pc, #56]	; (8002ba0 <USART1_IRQHandler+0xac>)
 8002b66:	490d      	ldr	r1, [pc, #52]	; (8002b9c <USART1_IRQHandler+0xa8>)
 8002b68:	6818      	ldr	r0, [r3, #0]
 8002b6a:	f7fd fe31 	bl	80007d0 <xQueueGiveFromISR>
			if(pxHigherPriorityTaskToken == pdTRUE) taskYIELD();
 8002b6e:	68a3      	ldr	r3, [r4, #8]
 8002b70:	2b01      	cmp	r3, #1
 8002b72:	d1e3      	bne.n	8002b3c <USART1_IRQHandler+0x48>
 8002b74:	f04f 5280 	mov.w	r2, #268435456	; 0x10000000
 8002b78:	4b0a      	ldr	r3, [pc, #40]	; (8002ba4 <USART1_IRQHandler+0xb0>)
 8002b7a:	601a      	str	r2, [r3, #0]
 8002b7c:	f3bf 8f4f 	dsb	sy
 8002b80:	f3bf 8f6f 	isb	sy
 8002b84:	e7da      	b.n	8002b3c <USART1_IRQHandler+0x48>
 8002b86:	bf00      	nop
 8002b88:	40013800 	.word	0x40013800
 8002b8c:	200045e8 	.word	0x200045e8
 8002b90:	20004644 	.word	0x20004644
 8002b94:	20004610 	.word	0x20004610
 8002b98:	20004640 	.word	0x20004640
 8002b9c:	200045f0 	.word	0x200045f0
 8002ba0:	20004630 	.word	0x20004630
 8002ba4:	e000ed04 	.word	0xe000ed04

08002ba8 <USART2_IRQHandler>:
 8002ba8:	4770      	bx	lr

08002baa <USART3_IRQHandler>:
 8002baa:	4770      	bx	lr

08002bac <EXTI15_10_IRQHandler>:
* Input          : None
* Output         : None
* Return         : None
*******************************************************************************/
void EXTI15_10_IRQHandler(void)
{
 8002bac:	b538      	push	{r3, r4, r5, lr}
	static BaseType_t pxHigherPriorityTaskToken;

	uint32_t pending = EXTI->PR;
 8002bae:	4c12      	ldr	r4, [pc, #72]	; (8002bf8 <EXTI15_10_IRQHandler+0x4c>)
 8002bb0:	6965      	ldr	r5, [r4, #20]
	if(pending & (1 << 13)) {//handler for pin13
 8002bb2:	04aa      	lsls	r2, r5, #18
 8002bb4:	d50d      	bpl.n	8002bd2 <EXTI15_10_IRQHandler+0x26>

		EXTI->PR = 1 << 13; // clear line13 pending flag, or get endless interrupts :P
 8002bb6:	f44f 5300 	mov.w	r3, #8192	; 0x2000

		player_position--;
 8002bba:	4a10      	ldr	r2, [pc, #64]	; (8002bfc <EXTI15_10_IRQHandler+0x50>)
		EXTI->PR = 1 << 13; // clear line13 pending flag, or get endless interrupts :P
 8002bbc:	6163      	str	r3, [r4, #20]
		player_position--;
 8002bbe:	6813      	ldr	r3, [r2, #0]
		if (player_position <= 0) player_position = 0;



		EXTI_ClearITPendingBit(EXTI_Line13);
 8002bc0:	f44f 5000 	mov.w	r0, #8192	; 0x2000
		player_position--;
 8002bc4:	3b01      	subs	r3, #1
		if (player_position <= 0) player_position = 0;
 8002bc6:	2b00      	cmp	r3, #0
 8002bc8:	bfd8      	it	le
 8002bca:	2300      	movle	r3, #0
 8002bcc:	6013      	str	r3, [r2, #0]
		EXTI_ClearITPendingBit(EXTI_Line13);
 8002bce:	f7fe fc01 	bl	80013d4 <EXTI_ClearITPendingBit>
	}

	if(pending & (1 << 11)) { //handler for pin11
 8002bd2:	052b      	lsls	r3, r5, #20
 8002bd4:	d50f      	bpl.n	8002bf6 <EXTI15_10_IRQHandler+0x4a>

		EXTI->PR = 1 << 11;//clear line11 pending flag
 8002bd6:	f44f 6300 	mov.w	r3, #2048	; 0x800

		player_position++;
 8002bda:	4a08      	ldr	r2, [pc, #32]	; (8002bfc <EXTI15_10_IRQHandler+0x50>)
		EXTI->PR = 1 << 11;//clear line11 pending flag
 8002bdc:	6163      	str	r3, [r4, #20]
		player_position++;
 8002bde:	6813      	ldr	r3, [r2, #0]
		if (player_position >= LCD_WIDTH-PLAYER_WIDTH) player_position = LCD_WIDTH-PLAYER_WIDTH;



		EXTI_ClearITPendingBit(EXTI_Line11);
 8002be0:	f44f 6000 	mov.w	r0, #2048	; 0x800
		player_position++;
 8002be4:	3301      	adds	r3, #1
		if (player_position >= LCD_WIDTH-PLAYER_WIDTH) player_position = LCD_WIDTH-PLAYER_WIDTH;
 8002be6:	2b61      	cmp	r3, #97	; 0x61
 8002be8:	bfc8      	it	gt
 8002bea:	2362      	movgt	r3, #98	; 0x62
 8002bec:	6013      	str	r3, [r2, #0]
	}

	if( pxHigherPriorityTaskToken == pdTRUE)
		taskYIELD();

}
 8002bee:	e8bd 4038 	ldmia.w	sp!, {r3, r4, r5, lr}
		EXTI_ClearITPendingBit(EXTI_Line11);
 8002bf2:	f7fe bbef 	b.w	80013d4 <EXTI_ClearITPendingBit>
}
 8002bf6:	bd38      	pop	{r3, r4, r5, pc}
 8002bf8:	40010400 	.word	0x40010400
 8002bfc:	2000002c 	.word	0x2000002c

08002c00 <RTCAlarm_IRQHandler>:
 8002c00:	4770      	bx	lr

08002c02 <USBWakeUp_IRQHandler>:
 8002c02:	4770      	bx	lr

08002c04 <_sbrk>:
	}
	return len;
}

caddr_t _sbrk(int incr)
{
 8002c04:	b508      	push	{r3, lr}
	extern char end asm("end");
	static char *heap_end;
	char *prev_heap_end;

	if (heap_end == 0)
 8002c06:	4b0a      	ldr	r3, [pc, #40]	; (8002c30 <_sbrk+0x2c>)
{
 8002c08:	4602      	mov	r2, r0
	if (heap_end == 0)
 8002c0a:	6819      	ldr	r1, [r3, #0]
 8002c0c:	b909      	cbnz	r1, 8002c12 <_sbrk+0xe>
		heap_end = &end;
 8002c0e:	4909      	ldr	r1, [pc, #36]	; (8002c34 <_sbrk+0x30>)
 8002c10:	6019      	str	r1, [r3, #0]

	prev_heap_end = heap_end;
	if (heap_end + incr > stack_ptr)
 8002c12:	4669      	mov	r1, sp
	prev_heap_end = heap_end;
 8002c14:	6818      	ldr	r0, [r3, #0]
	if (heap_end + incr > stack_ptr)
 8002c16:	4402      	add	r2, r0
 8002c18:	428a      	cmp	r2, r1
 8002c1a:	d906      	bls.n	8002c2a <_sbrk+0x26>
	{
//		write(1, "Heap and stack collision\n", 25);
//		abort();
		errno = ENOMEM;
 8002c1c:	f000 f830 	bl	8002c80 <__errno>
 8002c20:	230c      	movs	r3, #12
 8002c22:	6003      	str	r3, [r0, #0]
		return (caddr_t) -1;
 8002c24:	f04f 30ff 	mov.w	r0, #4294967295
	}

	heap_end += incr;

	return (caddr_t) prev_heap_end;
}
 8002c28:	bd08      	pop	{r3, pc}
	heap_end += incr;
 8002c2a:	601a      	str	r2, [r3, #0]
	return (caddr_t) prev_heap_end;
 8002c2c:	e7fc      	b.n	8002c28 <_sbrk+0x24>
 8002c2e:	bf00      	nop
 8002c30:	200045f8 	.word	0x200045f8
 8002c34:	20004668 	.word	0x20004668

08002c38 <Reset_Handler>:
	.weak	Reset_Handler
	.type	Reset_Handler, %function
Reset_Handler:

/* Copy the data segment initializers from flash to SRAM */
  movs	r1, #0
 8002c38:	2100      	movs	r1, #0
  b	LoopCopyDataInit
 8002c3a:	e003      	b.n	8002c44 <LoopCopyDataInit>

08002c3c <CopyDataInit>:

CopyDataInit:
	ldr	r3, =_sidata
 8002c3c:	4b0a      	ldr	r3, [pc, #40]	; (8002c68 <LoopFillZerobss+0x10>)
	ldr	r3, [r3, r1]
 8002c3e:	585b      	ldr	r3, [r3, r1]
	str	r3, [r0, r1]
 8002c40:	5043      	str	r3, [r0, r1]
	adds	r1, r1, #4
 8002c42:	3104      	adds	r1, #4

08002c44 <LoopCopyDataInit>:

LoopCopyDataInit:
	ldr	r0, =_sdata
 8002c44:	4809      	ldr	r0, [pc, #36]	; (8002c6c <LoopFillZerobss+0x14>)
	ldr	r3, =_edata
 8002c46:	4b0a      	ldr	r3, [pc, #40]	; (8002c70 <LoopFillZerobss+0x18>)
	adds	r2, r0, r1
 8002c48:	1842      	adds	r2, r0, r1
	cmp	r2, r3
 8002c4a:	429a      	cmp	r2, r3
	bcc	CopyDataInit
 8002c4c:	d3f6      	bcc.n	8002c3c <CopyDataInit>
	ldr	r2, =_sbss
 8002c4e:	4a09      	ldr	r2, [pc, #36]	; (8002c74 <LoopFillZerobss+0x1c>)
	b	LoopFillZerobss
 8002c50:	e002      	b.n	8002c58 <LoopFillZerobss>

08002c52 <FillZerobss>:
/* Zero fill the bss segment. */
FillZerobss:
	movs	r3, #0
 8002c52:	2300      	movs	r3, #0
	str	r3, [r2], #4
 8002c54:	f842 3b04 	str.w	r3, [r2], #4

08002c58 <LoopFillZerobss>:

LoopFillZerobss:
	ldr	r3, = _ebss
 8002c58:	4b07      	ldr	r3, [pc, #28]	; (8002c78 <LoopFillZerobss+0x20>)
	cmp	r2, r3
 8002c5a:	429a      	cmp	r2, r3
	bcc	FillZerobss
 8002c5c:	d3f9      	bcc.n	8002c52 <FillZerobss>

/* Call the clock system intitialization function.*/
/* 	bl  SystemInit */
/* Call static constructors */
    bl __libc_init_array
 8002c5e:	f000 f815 	bl	8002c8c <__libc_init_array>
/* Call the application's entry point.*/
	bl	main
 8002c62:	f7ff fd81 	bl	8002768 <main>
	bx	lr
 8002c66:	4770      	bx	lr
	ldr	r3, =_sidata
 8002c68:	08003b00 	.word	0x08003b00
	ldr	r0, =_sdata
 8002c6c:	20000000 	.word	0x20000000
	ldr	r3, =_edata
 8002c70:	20000094 	.word	0x20000094
	ldr	r2, =_sbss
 8002c74:	20000094 	.word	0x20000094
	ldr	r3, = _ebss
 8002c78:	20004668 	.word	0x20004668

08002c7c <BusFault_Handler>:
 * @retval : None
*/
    .section	.text.Default_Handler,"ax",%progbits
Default_Handler:
Infinite_Loop:
	b	Infinite_Loop
 8002c7c:	e7fe      	b.n	8002c7c <BusFault_Handler>
	...

08002c80 <__errno>:
 8002c80:	4b01      	ldr	r3, [pc, #4]	; (8002c88 <__errno+0x8>)
 8002c82:	6818      	ldr	r0, [r3, #0]
 8002c84:	4770      	bx	lr
 8002c86:	bf00      	nop
 8002c88:	20000030 	.word	0x20000030

08002c8c <__libc_init_array>:
 8002c8c:	b570      	push	{r4, r5, r6, lr}
 8002c8e:	2600      	movs	r6, #0
 8002c90:	4d0c      	ldr	r5, [pc, #48]	; (8002cc4 <__libc_init_array+0x38>)
 8002c92:	4c0d      	ldr	r4, [pc, #52]	; (8002cc8 <__libc_init_array+0x3c>)
 8002c94:	1b64      	subs	r4, r4, r5
 8002c96:	10a4      	asrs	r4, r4, #2
 8002c98:	42a6      	cmp	r6, r4
 8002c9a:	d109      	bne.n	8002cb0 <__libc_init_array+0x24>
 8002c9c:	f000 fc54 	bl	8003548 <_init>
 8002ca0:	2600      	movs	r6, #0
 8002ca2:	4d0a      	ldr	r5, [pc, #40]	; (8002ccc <__libc_init_array+0x40>)
 8002ca4:	4c0a      	ldr	r4, [pc, #40]	; (8002cd0 <__libc_init_array+0x44>)
 8002ca6:	1b64      	subs	r4, r4, r5
 8002ca8:	10a4      	asrs	r4, r4, #2
 8002caa:	42a6      	cmp	r6, r4
 8002cac:	d105      	bne.n	8002cba <__libc_init_array+0x2e>
 8002cae:	bd70      	pop	{r4, r5, r6, pc}
 8002cb0:	f855 3b04 	ldr.w	r3, [r5], #4
 8002cb4:	4798      	blx	r3
 8002cb6:	3601      	adds	r6, #1
 8002cb8:	e7ee      	b.n	8002c98 <__libc_init_array+0xc>
 8002cba:	f855 3b04 	ldr.w	r3, [r5], #4
 8002cbe:	4798      	blx	r3
 8002cc0:	3601      	adds	r6, #1
 8002cc2:	e7f2      	b.n	8002caa <__libc_init_array+0x1e>
 8002cc4:	08003af8 	.word	0x08003af8
 8002cc8:	08003af8 	.word	0x08003af8
 8002ccc:	08003af8 	.word	0x08003af8
 8002cd0:	08003afc 	.word	0x08003afc

08002cd4 <memcpy>:
 8002cd4:	440a      	add	r2, r1
 8002cd6:	4291      	cmp	r1, r2
 8002cd8:	f100 33ff 	add.w	r3, r0, #4294967295
 8002cdc:	d100      	bne.n	8002ce0 <memcpy+0xc>
 8002cde:	4770      	bx	lr
 8002ce0:	b510      	push	{r4, lr}
 8002ce2:	f811 4b01 	ldrb.w	r4, [r1], #1
 8002ce6:	4291      	cmp	r1, r2
 8002ce8:	f803 4f01 	strb.w	r4, [r3, #1]!
 8002cec:	d1f9      	bne.n	8002ce2 <memcpy+0xe>
 8002cee:	bd10      	pop	{r4, pc}

08002cf0 <siprintf>:
 8002cf0:	b40e      	push	{r1, r2, r3}
 8002cf2:	f06f 4100 	mvn.w	r1, #2147483648	; 0x80000000
 8002cf6:	b500      	push	{lr}
 8002cf8:	b09c      	sub	sp, #112	; 0x70
 8002cfa:	ab1d      	add	r3, sp, #116	; 0x74
 8002cfc:	9002      	str	r0, [sp, #8]
 8002cfe:	9006      	str	r0, [sp, #24]
 8002d00:	9107      	str	r1, [sp, #28]
 8002d02:	9104      	str	r1, [sp, #16]
 8002d04:	4808      	ldr	r0, [pc, #32]	; (8002d28 <siprintf+0x38>)
 8002d06:	4909      	ldr	r1, [pc, #36]	; (8002d2c <siprintf+0x3c>)
 8002d08:	f853 2b04 	ldr.w	r2, [r3], #4
 8002d0c:	9105      	str	r1, [sp, #20]
 8002d0e:	6800      	ldr	r0, [r0, #0]
 8002d10:	a902      	add	r1, sp, #8
 8002d12:	9301      	str	r3, [sp, #4]
 8002d14:	f000 f868 	bl	8002de8 <_svfiprintf_r>
 8002d18:	2200      	movs	r2, #0
 8002d1a:	9b02      	ldr	r3, [sp, #8]
 8002d1c:	701a      	strb	r2, [r3, #0]
 8002d1e:	b01c      	add	sp, #112	; 0x70
 8002d20:	f85d eb04 	ldr.w	lr, [sp], #4
 8002d24:	b003      	add	sp, #12
 8002d26:	4770      	bx	lr
 8002d28:	20000030 	.word	0x20000030
 8002d2c:	ffff0208 	.word	0xffff0208

08002d30 <__ssputs_r>:
 8002d30:	e92d 47f0 	stmdb	sp!, {r4, r5, r6, r7, r8, r9, sl, lr}
 8002d34:	688e      	ldr	r6, [r1, #8]
 8002d36:	4682      	mov	sl, r0
 8002d38:	429e      	cmp	r6, r3
 8002d3a:	460c      	mov	r4, r1
 8002d3c:	4690      	mov	r8, r2
 8002d3e:	461f      	mov	r7, r3
 8002d40:	d838      	bhi.n	8002db4 <__ssputs_r+0x84>
 8002d42:	898a      	ldrh	r2, [r1, #12]
 8002d44:	f412 6f90 	tst.w	r2, #1152	; 0x480
 8002d48:	d032      	beq.n	8002db0 <__ssputs_r+0x80>
 8002d4a:	6825      	ldr	r5, [r4, #0]
 8002d4c:	6909      	ldr	r1, [r1, #16]
 8002d4e:	3301      	adds	r3, #1
 8002d50:	eba5 0901 	sub.w	r9, r5, r1
 8002d54:	6965      	ldr	r5, [r4, #20]
 8002d56:	444b      	add	r3, r9
 8002d58:	eb05 0545 	add.w	r5, r5, r5, lsl #1
 8002d5c:	eb05 75d5 	add.w	r5, r5, r5, lsr #31
 8002d60:	106d      	asrs	r5, r5, #1
 8002d62:	429d      	cmp	r5, r3
 8002d64:	bf38      	it	cc
 8002d66:	461d      	movcc	r5, r3
 8002d68:	0553      	lsls	r3, r2, #21
 8002d6a:	d531      	bpl.n	8002dd0 <__ssputs_r+0xa0>
 8002d6c:	4629      	mov	r1, r5
 8002d6e:	f000 fb45 	bl	80033fc <_malloc_r>
 8002d72:	4606      	mov	r6, r0
 8002d74:	b950      	cbnz	r0, 8002d8c <__ssputs_r+0x5c>
 8002d76:	230c      	movs	r3, #12
 8002d78:	f04f 30ff 	mov.w	r0, #4294967295
 8002d7c:	f8ca 3000 	str.w	r3, [sl]
 8002d80:	89a3      	ldrh	r3, [r4, #12]
 8002d82:	f043 0340 	orr.w	r3, r3, #64	; 0x40
 8002d86:	81a3      	strh	r3, [r4, #12]
 8002d88:	e8bd 87f0 	ldmia.w	sp!, {r4, r5, r6, r7, r8, r9, sl, pc}
 8002d8c:	464a      	mov	r2, r9
 8002d8e:	6921      	ldr	r1, [r4, #16]
 8002d90:	f7ff ffa0 	bl	8002cd4 <memcpy>
 8002d94:	89a3      	ldrh	r3, [r4, #12]
 8002d96:	f423 6390 	bic.w	r3, r3, #1152	; 0x480
 8002d9a:	f043 0380 	orr.w	r3, r3, #128	; 0x80
 8002d9e:	81a3      	strh	r3, [r4, #12]
 8002da0:	6126      	str	r6, [r4, #16]
 8002da2:	444e      	add	r6, r9
 8002da4:	6026      	str	r6, [r4, #0]
 8002da6:	463e      	mov	r6, r7
 8002da8:	6165      	str	r5, [r4, #20]
 8002daa:	eba5 0509 	sub.w	r5, r5, r9
 8002dae:	60a5      	str	r5, [r4, #8]
 8002db0:	42be      	cmp	r6, r7
 8002db2:	d900      	bls.n	8002db6 <__ssputs_r+0x86>
 8002db4:	463e      	mov	r6, r7
 8002db6:	4632      	mov	r2, r6
 8002db8:	4641      	mov	r1, r8
 8002dba:	6820      	ldr	r0, [r4, #0]
 8002dbc:	f000 fab8 	bl	8003330 <memmove>
 8002dc0:	68a3      	ldr	r3, [r4, #8]
 8002dc2:	6822      	ldr	r2, [r4, #0]
 8002dc4:	1b9b      	subs	r3, r3, r6
 8002dc6:	4432      	add	r2, r6
 8002dc8:	2000      	movs	r0, #0
 8002dca:	60a3      	str	r3, [r4, #8]
 8002dcc:	6022      	str	r2, [r4, #0]
 8002dce:	e7db      	b.n	8002d88 <__ssputs_r+0x58>
 8002dd0:	462a      	mov	r2, r5
 8002dd2:	f000 fb6d 	bl	80034b0 <_realloc_r>
 8002dd6:	4606      	mov	r6, r0
 8002dd8:	2800      	cmp	r0, #0
 8002dda:	d1e1      	bne.n	8002da0 <__ssputs_r+0x70>
 8002ddc:	4650      	mov	r0, sl
 8002dde:	6921      	ldr	r1, [r4, #16]
 8002de0:	f000 fac0 	bl	8003364 <_free_r>
 8002de4:	e7c7      	b.n	8002d76 <__ssputs_r+0x46>
	...

08002de8 <_svfiprintf_r>:
 8002de8:	e92d 4ff0 	stmdb	sp!, {r4, r5, r6, r7, r8, r9, sl, fp, lr}
 8002dec:	4698      	mov	r8, r3
 8002dee:	898b      	ldrh	r3, [r1, #12]
 8002df0:	4607      	mov	r7, r0
 8002df2:	061b      	lsls	r3, r3, #24
 8002df4:	460d      	mov	r5, r1
 8002df6:	4614      	mov	r4, r2
 8002df8:	b09d      	sub	sp, #116	; 0x74
 8002dfa:	d50e      	bpl.n	8002e1a <_svfiprintf_r+0x32>
 8002dfc:	690b      	ldr	r3, [r1, #16]
 8002dfe:	b963      	cbnz	r3, 8002e1a <_svfiprintf_r+0x32>
 8002e00:	2140      	movs	r1, #64	; 0x40
 8002e02:	f000 fafb 	bl	80033fc <_malloc_r>
 8002e06:	6028      	str	r0, [r5, #0]
 8002e08:	6128      	str	r0, [r5, #16]
 8002e0a:	b920      	cbnz	r0, 8002e16 <_svfiprintf_r+0x2e>
 8002e0c:	230c      	movs	r3, #12
 8002e0e:	603b      	str	r3, [r7, #0]
 8002e10:	f04f 30ff 	mov.w	r0, #4294967295
 8002e14:	e0d1      	b.n	8002fba <_svfiprintf_r+0x1d2>
 8002e16:	2340      	movs	r3, #64	; 0x40
 8002e18:	616b      	str	r3, [r5, #20]
 8002e1a:	2300      	movs	r3, #0
 8002e1c:	9309      	str	r3, [sp, #36]	; 0x24
 8002e1e:	2320      	movs	r3, #32
 8002e20:	f88d 3029 	strb.w	r3, [sp, #41]	; 0x29
 8002e24:	2330      	movs	r3, #48	; 0x30
 8002e26:	f04f 0901 	mov.w	r9, #1
 8002e2a:	f8cd 800c 	str.w	r8, [sp, #12]
 8002e2e:	f8df 81a4 	ldr.w	r8, [pc, #420]	; 8002fd4 <_svfiprintf_r+0x1ec>
 8002e32:	f88d 302a 	strb.w	r3, [sp, #42]	; 0x2a
 8002e36:	4623      	mov	r3, r4
 8002e38:	469a      	mov	sl, r3
 8002e3a:	f813 2b01 	ldrb.w	r2, [r3], #1
 8002e3e:	b10a      	cbz	r2, 8002e44 <_svfiprintf_r+0x5c>
 8002e40:	2a25      	cmp	r2, #37	; 0x25
 8002e42:	d1f9      	bne.n	8002e38 <_svfiprintf_r+0x50>
 8002e44:	ebba 0b04 	subs.w	fp, sl, r4
 8002e48:	d00b      	beq.n	8002e62 <_svfiprintf_r+0x7a>
 8002e4a:	465b      	mov	r3, fp
 8002e4c:	4622      	mov	r2, r4
 8002e4e:	4629      	mov	r1, r5
 8002e50:	4638      	mov	r0, r7
 8002e52:	f7ff ff6d 	bl	8002d30 <__ssputs_r>
 8002e56:	3001      	adds	r0, #1
 8002e58:	f000 80aa 	beq.w	8002fb0 <_svfiprintf_r+0x1c8>
 8002e5c:	9a09      	ldr	r2, [sp, #36]	; 0x24
 8002e5e:	445a      	add	r2, fp
 8002e60:	9209      	str	r2, [sp, #36]	; 0x24
 8002e62:	f89a 3000 	ldrb.w	r3, [sl]
 8002e66:	2b00      	cmp	r3, #0
 8002e68:	f000 80a2 	beq.w	8002fb0 <_svfiprintf_r+0x1c8>
 8002e6c:	2300      	movs	r3, #0
 8002e6e:	f04f 32ff 	mov.w	r2, #4294967295
 8002e72:	e9cd 2305 	strd	r2, r3, [sp, #20]
 8002e76:	f10a 0a01 	add.w	sl, sl, #1
 8002e7a:	9304      	str	r3, [sp, #16]
 8002e7c:	9307      	str	r3, [sp, #28]
 8002e7e:	f88d 3053 	strb.w	r3, [sp, #83]	; 0x53
 8002e82:	931a      	str	r3, [sp, #104]	; 0x68
 8002e84:	4654      	mov	r4, sl
 8002e86:	2205      	movs	r2, #5
 8002e88:	f814 1b01 	ldrb.w	r1, [r4], #1
 8002e8c:	4851      	ldr	r0, [pc, #324]	; (8002fd4 <_svfiprintf_r+0x1ec>)
 8002e8e:	f000 fa41 	bl	8003314 <memchr>
 8002e92:	9a04      	ldr	r2, [sp, #16]
 8002e94:	b9d8      	cbnz	r0, 8002ece <_svfiprintf_r+0xe6>
 8002e96:	06d0      	lsls	r0, r2, #27
 8002e98:	bf44      	itt	mi
 8002e9a:	2320      	movmi	r3, #32
 8002e9c:	f88d 3053 	strbmi.w	r3, [sp, #83]	; 0x53
 8002ea0:	0711      	lsls	r1, r2, #28
 8002ea2:	bf44      	itt	mi
 8002ea4:	232b      	movmi	r3, #43	; 0x2b
 8002ea6:	f88d 3053 	strbmi.w	r3, [sp, #83]	; 0x53
 8002eaa:	f89a 3000 	ldrb.w	r3, [sl]
 8002eae:	2b2a      	cmp	r3, #42	; 0x2a
 8002eb0:	d015      	beq.n	8002ede <_svfiprintf_r+0xf6>
 8002eb2:	4654      	mov	r4, sl
 8002eb4:	2000      	movs	r0, #0
 8002eb6:	f04f 0c0a 	mov.w	ip, #10
 8002eba:	9a07      	ldr	r2, [sp, #28]
 8002ebc:	4621      	mov	r1, r4
 8002ebe:	f811 3b01 	ldrb.w	r3, [r1], #1
 8002ec2:	3b30      	subs	r3, #48	; 0x30
 8002ec4:	2b09      	cmp	r3, #9
 8002ec6:	d94e      	bls.n	8002f66 <_svfiprintf_r+0x17e>
 8002ec8:	b1b0      	cbz	r0, 8002ef8 <_svfiprintf_r+0x110>
 8002eca:	9207      	str	r2, [sp, #28]
 8002ecc:	e014      	b.n	8002ef8 <_svfiprintf_r+0x110>
 8002ece:	eba0 0308 	sub.w	r3, r0, r8
 8002ed2:	fa09 f303 	lsl.w	r3, r9, r3
 8002ed6:	4313      	orrs	r3, r2
 8002ed8:	46a2      	mov	sl, r4
 8002eda:	9304      	str	r3, [sp, #16]
 8002edc:	e7d2      	b.n	8002e84 <_svfiprintf_r+0x9c>
 8002ede:	9b03      	ldr	r3, [sp, #12]
 8002ee0:	1d19      	adds	r1, r3, #4
 8002ee2:	681b      	ldr	r3, [r3, #0]
 8002ee4:	9103      	str	r1, [sp, #12]
 8002ee6:	2b00      	cmp	r3, #0
 8002ee8:	bfbb      	ittet	lt
 8002eea:	425b      	neglt	r3, r3
 8002eec:	f042 0202 	orrlt.w	r2, r2, #2
 8002ef0:	9307      	strge	r3, [sp, #28]
 8002ef2:	9307      	strlt	r3, [sp, #28]
 8002ef4:	bfb8      	it	lt
 8002ef6:	9204      	strlt	r2, [sp, #16]
 8002ef8:	7823      	ldrb	r3, [r4, #0]
 8002efa:	2b2e      	cmp	r3, #46	; 0x2e
 8002efc:	d10c      	bne.n	8002f18 <_svfiprintf_r+0x130>
 8002efe:	7863      	ldrb	r3, [r4, #1]
 8002f00:	2b2a      	cmp	r3, #42	; 0x2a
 8002f02:	d135      	bne.n	8002f70 <_svfiprintf_r+0x188>
 8002f04:	9b03      	ldr	r3, [sp, #12]
 8002f06:	3402      	adds	r4, #2
 8002f08:	1d1a      	adds	r2, r3, #4
 8002f0a:	681b      	ldr	r3, [r3, #0]
 8002f0c:	9203      	str	r2, [sp, #12]
 8002f0e:	2b00      	cmp	r3, #0
 8002f10:	bfb8      	it	lt
 8002f12:	f04f 33ff 	movlt.w	r3, #4294967295
 8002f16:	9305      	str	r3, [sp, #20]
 8002f18:	f8df a0c8 	ldr.w	sl, [pc, #200]	; 8002fe4 <_svfiprintf_r+0x1fc>
 8002f1c:	2203      	movs	r2, #3
 8002f1e:	4650      	mov	r0, sl
 8002f20:	7821      	ldrb	r1, [r4, #0]
 8002f22:	f000 f9f7 	bl	8003314 <memchr>
 8002f26:	b140      	cbz	r0, 8002f3a <_svfiprintf_r+0x152>
 8002f28:	2340      	movs	r3, #64	; 0x40
 8002f2a:	eba0 000a 	sub.w	r0, r0, sl
 8002f2e:	fa03 f000 	lsl.w	r0, r3, r0
 8002f32:	9b04      	ldr	r3, [sp, #16]
 8002f34:	3401      	adds	r4, #1
 8002f36:	4303      	orrs	r3, r0
 8002f38:	9304      	str	r3, [sp, #16]
 8002f3a:	f814 1b01 	ldrb.w	r1, [r4], #1
 8002f3e:	2206      	movs	r2, #6
 8002f40:	4825      	ldr	r0, [pc, #148]	; (8002fd8 <_svfiprintf_r+0x1f0>)
 8002f42:	f88d 1028 	strb.w	r1, [sp, #40]	; 0x28
 8002f46:	f000 f9e5 	bl	8003314 <memchr>
 8002f4a:	2800      	cmp	r0, #0
 8002f4c:	d038      	beq.n	8002fc0 <_svfiprintf_r+0x1d8>
 8002f4e:	4b23      	ldr	r3, [pc, #140]	; (8002fdc <_svfiprintf_r+0x1f4>)
 8002f50:	bb1b      	cbnz	r3, 8002f9a <_svfiprintf_r+0x1b2>
 8002f52:	9b03      	ldr	r3, [sp, #12]
 8002f54:	3307      	adds	r3, #7
 8002f56:	f023 0307 	bic.w	r3, r3, #7
 8002f5a:	3308      	adds	r3, #8
 8002f5c:	9303      	str	r3, [sp, #12]
 8002f5e:	9b09      	ldr	r3, [sp, #36]	; 0x24
 8002f60:	4433      	add	r3, r6
 8002f62:	9309      	str	r3, [sp, #36]	; 0x24
 8002f64:	e767      	b.n	8002e36 <_svfiprintf_r+0x4e>
 8002f66:	460c      	mov	r4, r1
 8002f68:	2001      	movs	r0, #1
 8002f6a:	fb0c 3202 	mla	r2, ip, r2, r3
 8002f6e:	e7a5      	b.n	8002ebc <_svfiprintf_r+0xd4>
 8002f70:	2300      	movs	r3, #0
 8002f72:	f04f 0c0a 	mov.w	ip, #10
 8002f76:	4619      	mov	r1, r3
 8002f78:	3401      	adds	r4, #1
 8002f7a:	9305      	str	r3, [sp, #20]
 8002f7c:	4620      	mov	r0, r4
 8002f7e:	f810 2b01 	ldrb.w	r2, [r0], #1
 8002f82:	3a30      	subs	r2, #48	; 0x30
 8002f84:	2a09      	cmp	r2, #9
 8002f86:	d903      	bls.n	8002f90 <_svfiprintf_r+0x1a8>
 8002f88:	2b00      	cmp	r3, #0
 8002f8a:	d0c5      	beq.n	8002f18 <_svfiprintf_r+0x130>
 8002f8c:	9105      	str	r1, [sp, #20]
 8002f8e:	e7c3      	b.n	8002f18 <_svfiprintf_r+0x130>
 8002f90:	4604      	mov	r4, r0
 8002f92:	2301      	movs	r3, #1
 8002f94:	fb0c 2101 	mla	r1, ip, r1, r2
 8002f98:	e7f0      	b.n	8002f7c <_svfiprintf_r+0x194>
 8002f9a:	ab03      	add	r3, sp, #12
 8002f9c:	9300      	str	r3, [sp, #0]
 8002f9e:	462a      	mov	r2, r5
 8002fa0:	4638      	mov	r0, r7
 8002fa2:	4b0f      	ldr	r3, [pc, #60]	; (8002fe0 <_svfiprintf_r+0x1f8>)
 8002fa4:	a904      	add	r1, sp, #16
 8002fa6:	f3af 8000 	nop.w
 8002faa:	1c42      	adds	r2, r0, #1
 8002fac:	4606      	mov	r6, r0
 8002fae:	d1d6      	bne.n	8002f5e <_svfiprintf_r+0x176>
 8002fb0:	89ab      	ldrh	r3, [r5, #12]
 8002fb2:	065b      	lsls	r3, r3, #25
 8002fb4:	f53f af2c 	bmi.w	8002e10 <_svfiprintf_r+0x28>
 8002fb8:	9809      	ldr	r0, [sp, #36]	; 0x24
 8002fba:	b01d      	add	sp, #116	; 0x74
 8002fbc:	e8bd 8ff0 	ldmia.w	sp!, {r4, r5, r6, r7, r8, r9, sl, fp, pc}
 8002fc0:	ab03      	add	r3, sp, #12
 8002fc2:	9300      	str	r3, [sp, #0]
 8002fc4:	462a      	mov	r2, r5
 8002fc6:	4638      	mov	r0, r7
 8002fc8:	4b05      	ldr	r3, [pc, #20]	; (8002fe0 <_svfiprintf_r+0x1f8>)
 8002fca:	a904      	add	r1, sp, #16
 8002fcc:	f000 f87c 	bl	80030c8 <_printf_i>
 8002fd0:	e7eb      	b.n	8002faa <_svfiprintf_r+0x1c2>
 8002fd2:	bf00      	nop
 8002fd4:	08003ac2 	.word	0x08003ac2
 8002fd8:	08003acc 	.word	0x08003acc
 8002fdc:	00000000 	.word	0x00000000
 8002fe0:	08002d31 	.word	0x08002d31
 8002fe4:	08003ac8 	.word	0x08003ac8

08002fe8 <_printf_common>:
 8002fe8:	e92d 47f0 	stmdb	sp!, {r4, r5, r6, r7, r8, r9, sl, lr}
 8002fec:	4616      	mov	r6, r2
 8002fee:	4699      	mov	r9, r3
 8002ff0:	688a      	ldr	r2, [r1, #8]
 8002ff2:	690b      	ldr	r3, [r1, #16]
 8002ff4:	4607      	mov	r7, r0
 8002ff6:	4293      	cmp	r3, r2
 8002ff8:	bfb8      	it	lt
 8002ffa:	4613      	movlt	r3, r2
 8002ffc:	6033      	str	r3, [r6, #0]
 8002ffe:	f891 2043 	ldrb.w	r2, [r1, #67]	; 0x43
 8003002:	460c      	mov	r4, r1
 8003004:	f8dd 8020 	ldr.w	r8, [sp, #32]
 8003008:	b10a      	cbz	r2, 800300e <_printf_common+0x26>
 800300a:	3301      	adds	r3, #1
 800300c:	6033      	str	r3, [r6, #0]
 800300e:	6823      	ldr	r3, [r4, #0]
 8003010:	0699      	lsls	r1, r3, #26
 8003012:	bf42      	ittt	mi
 8003014:	6833      	ldrmi	r3, [r6, #0]
 8003016:	3302      	addmi	r3, #2
 8003018:	6033      	strmi	r3, [r6, #0]
 800301a:	6825      	ldr	r5, [r4, #0]
 800301c:	f015 0506 	ands.w	r5, r5, #6
 8003020:	d106      	bne.n	8003030 <_printf_common+0x48>
 8003022:	f104 0a19 	add.w	sl, r4, #25
 8003026:	68e3      	ldr	r3, [r4, #12]
 8003028:	6832      	ldr	r2, [r6, #0]
 800302a:	1a9b      	subs	r3, r3, r2
 800302c:	42ab      	cmp	r3, r5
 800302e:	dc28      	bgt.n	8003082 <_printf_common+0x9a>
 8003030:	f894 2043 	ldrb.w	r2, [r4, #67]	; 0x43
 8003034:	1e13      	subs	r3, r2, #0
 8003036:	6822      	ldr	r2, [r4, #0]
 8003038:	bf18      	it	ne
 800303a:	2301      	movne	r3, #1
 800303c:	0692      	lsls	r2, r2, #26
 800303e:	d42d      	bmi.n	800309c <_printf_common+0xb4>
 8003040:	4649      	mov	r1, r9
 8003042:	4638      	mov	r0, r7
 8003044:	f104 0243 	add.w	r2, r4, #67	; 0x43
 8003048:	47c0      	blx	r8
 800304a:	3001      	adds	r0, #1
 800304c:	d020      	beq.n	8003090 <_printf_common+0xa8>
 800304e:	6823      	ldr	r3, [r4, #0]
 8003050:	68e5      	ldr	r5, [r4, #12]
 8003052:	f003 0306 	and.w	r3, r3, #6
 8003056:	2b04      	cmp	r3, #4
 8003058:	bf18      	it	ne
 800305a:	2500      	movne	r5, #0
 800305c:	6832      	ldr	r2, [r6, #0]
 800305e:	f04f 0600 	mov.w	r6, #0
 8003062:	68a3      	ldr	r3, [r4, #8]
 8003064:	bf08      	it	eq
 8003066:	1aad      	subeq	r5, r5, r2
 8003068:	6922      	ldr	r2, [r4, #16]
 800306a:	bf08      	it	eq
 800306c:	ea25 75e5 	biceq.w	r5, r5, r5, asr #31
 8003070:	4293      	cmp	r3, r2
 8003072:	bfc4      	itt	gt
 8003074:	1a9b      	subgt	r3, r3, r2
 8003076:	18ed      	addgt	r5, r5, r3
 8003078:	341a      	adds	r4, #26
 800307a:	42b5      	cmp	r5, r6
 800307c:	d11a      	bne.n	80030b4 <_printf_common+0xcc>
 800307e:	2000      	movs	r0, #0
 8003080:	e008      	b.n	8003094 <_printf_common+0xac>
 8003082:	2301      	movs	r3, #1
 8003084:	4652      	mov	r2, sl
 8003086:	4649      	mov	r1, r9
 8003088:	4638      	mov	r0, r7
 800308a:	47c0      	blx	r8
 800308c:	3001      	adds	r0, #1
 800308e:	d103      	bne.n	8003098 <_printf_common+0xb0>
 8003090:	f04f 30ff 	mov.w	r0, #4294967295
 8003094:	e8bd 87f0 	ldmia.w	sp!, {r4, r5, r6, r7, r8, r9, sl, pc}
 8003098:	3501      	adds	r5, #1
 800309a:	e7c4      	b.n	8003026 <_printf_common+0x3e>
 800309c:	2030      	movs	r0, #48	; 0x30
 800309e:	18e1      	adds	r1, r4, r3
 80030a0:	f881 0043 	strb.w	r0, [r1, #67]	; 0x43
 80030a4:	1c5a      	adds	r2, r3, #1
 80030a6:	f894 1045 	ldrb.w	r1, [r4, #69]	; 0x45
 80030aa:	4422      	add	r2, r4
 80030ac:	3302      	adds	r3, #2
 80030ae:	f882 1043 	strb.w	r1, [r2, #67]	; 0x43
 80030b2:	e7c5      	b.n	8003040 <_printf_common+0x58>
 80030b4:	2301      	movs	r3, #1
 80030b6:	4622      	mov	r2, r4
 80030b8:	4649      	mov	r1, r9
 80030ba:	4638      	mov	r0, r7
 80030bc:	47c0      	blx	r8
 80030be:	3001      	adds	r0, #1
 80030c0:	d0e6      	beq.n	8003090 <_printf_common+0xa8>
 80030c2:	3601      	adds	r6, #1
 80030c4:	e7d9      	b.n	800307a <_printf_common+0x92>
	...

080030c8 <_printf_i>:
 80030c8:	e92d 47ff 	stmdb	sp!, {r0, r1, r2, r3, r4, r5, r6, r7, r8, r9, sl, lr}
 80030cc:	460c      	mov	r4, r1
 80030ce:	7e27      	ldrb	r7, [r4, #24]
 80030d0:	4691      	mov	r9, r2
 80030d2:	2f78      	cmp	r7, #120	; 0x78
 80030d4:	4680      	mov	r8, r0
 80030d6:	469a      	mov	sl, r3
 80030d8:	990c      	ldr	r1, [sp, #48]	; 0x30
 80030da:	f104 0243 	add.w	r2, r4, #67	; 0x43
 80030de:	d807      	bhi.n	80030f0 <_printf_i+0x28>
 80030e0:	2f62      	cmp	r7, #98	; 0x62
 80030e2:	d80a      	bhi.n	80030fa <_printf_i+0x32>
 80030e4:	2f00      	cmp	r7, #0
 80030e6:	f000 80d9 	beq.w	800329c <_printf_i+0x1d4>
 80030ea:	2f58      	cmp	r7, #88	; 0x58
 80030ec:	f000 80a4 	beq.w	8003238 <_printf_i+0x170>
 80030f0:	f104 0642 	add.w	r6, r4, #66	; 0x42
 80030f4:	f884 7042 	strb.w	r7, [r4, #66]	; 0x42
 80030f8:	e03a      	b.n	8003170 <_printf_i+0xa8>
 80030fa:	f1a7 0363 	sub.w	r3, r7, #99	; 0x63
 80030fe:	2b15      	cmp	r3, #21
 8003100:	d8f6      	bhi.n	80030f0 <_printf_i+0x28>
 8003102:	a001      	add	r0, pc, #4	; (adr r0, 8003108 <_printf_i+0x40>)
 8003104:	f850 f023 	ldr.w	pc, [r0, r3, lsl #2]
 8003108:	08003161 	.word	0x08003161
 800310c:	08003175 	.word	0x08003175
 8003110:	080030f1 	.word	0x080030f1
 8003114:	080030f1 	.word	0x080030f1
 8003118:	080030f1 	.word	0x080030f1
 800311c:	080030f1 	.word	0x080030f1
 8003120:	08003175 	.word	0x08003175
 8003124:	080030f1 	.word	0x080030f1
 8003128:	080030f1 	.word	0x080030f1
 800312c:	080030f1 	.word	0x080030f1
 8003130:	080030f1 	.word	0x080030f1
 8003134:	08003283 	.word	0x08003283
 8003138:	080031a5 	.word	0x080031a5
 800313c:	08003265 	.word	0x08003265
 8003140:	080030f1 	.word	0x080030f1
 8003144:	080030f1 	.word	0x080030f1
 8003148:	080032a5 	.word	0x080032a5
 800314c:	080030f1 	.word	0x080030f1
 8003150:	080031a5 	.word	0x080031a5
 8003154:	080030f1 	.word	0x080030f1
 8003158:	080030f1 	.word	0x080030f1
 800315c:	0800326d 	.word	0x0800326d
 8003160:	680b      	ldr	r3, [r1, #0]
 8003162:	f104 0642 	add.w	r6, r4, #66	; 0x42
 8003166:	1d1a      	adds	r2, r3, #4
 8003168:	681b      	ldr	r3, [r3, #0]
 800316a:	600a      	str	r2, [r1, #0]
 800316c:	f884 3042 	strb.w	r3, [r4, #66]	; 0x42
 8003170:	2301      	movs	r3, #1
 8003172:	e0a4      	b.n	80032be <_printf_i+0x1f6>
 8003174:	6825      	ldr	r5, [r4, #0]
 8003176:	6808      	ldr	r0, [r1, #0]
 8003178:	062e      	lsls	r6, r5, #24
 800317a:	f100 0304 	add.w	r3, r0, #4
 800317e:	d50a      	bpl.n	8003196 <_printf_i+0xce>
 8003180:	6805      	ldr	r5, [r0, #0]
 8003182:	600b      	str	r3, [r1, #0]
 8003184:	2d00      	cmp	r5, #0
 8003186:	da03      	bge.n	8003190 <_printf_i+0xc8>
 8003188:	232d      	movs	r3, #45	; 0x2d
 800318a:	426d      	negs	r5, r5
 800318c:	f884 3043 	strb.w	r3, [r4, #67]	; 0x43
 8003190:	230a      	movs	r3, #10
 8003192:	485e      	ldr	r0, [pc, #376]	; (800330c <_printf_i+0x244>)
 8003194:	e019      	b.n	80031ca <_printf_i+0x102>
 8003196:	f015 0f40 	tst.w	r5, #64	; 0x40
 800319a:	6805      	ldr	r5, [r0, #0]
 800319c:	600b      	str	r3, [r1, #0]
 800319e:	bf18      	it	ne
 80031a0:	b22d      	sxthne	r5, r5
 80031a2:	e7ef      	b.n	8003184 <_printf_i+0xbc>
 80031a4:	680b      	ldr	r3, [r1, #0]
 80031a6:	6825      	ldr	r5, [r4, #0]
 80031a8:	1d18      	adds	r0, r3, #4
 80031aa:	6008      	str	r0, [r1, #0]
 80031ac:	0628      	lsls	r0, r5, #24
 80031ae:	d501      	bpl.n	80031b4 <_printf_i+0xec>
 80031b0:	681d      	ldr	r5, [r3, #0]
 80031b2:	e002      	b.n	80031ba <_printf_i+0xf2>
 80031b4:	0669      	lsls	r1, r5, #25
 80031b6:	d5fb      	bpl.n	80031b0 <_printf_i+0xe8>
 80031b8:	881d      	ldrh	r5, [r3, #0]
 80031ba:	2f6f      	cmp	r7, #111	; 0x6f
 80031bc:	bf0c      	ite	eq
 80031be:	2308      	moveq	r3, #8
 80031c0:	230a      	movne	r3, #10
 80031c2:	4852      	ldr	r0, [pc, #328]	; (800330c <_printf_i+0x244>)
 80031c4:	2100      	movs	r1, #0
 80031c6:	f884 1043 	strb.w	r1, [r4, #67]	; 0x43
 80031ca:	6866      	ldr	r6, [r4, #4]
 80031cc:	2e00      	cmp	r6, #0
 80031ce:	bfa8      	it	ge
 80031d0:	6821      	ldrge	r1, [r4, #0]
 80031d2:	60a6      	str	r6, [r4, #8]
 80031d4:	bfa4      	itt	ge
 80031d6:	f021 0104 	bicge.w	r1, r1, #4
 80031da:	6021      	strge	r1, [r4, #0]
 80031dc:	b90d      	cbnz	r5, 80031e2 <_printf_i+0x11a>
 80031de:	2e00      	cmp	r6, #0
 80031e0:	d04d      	beq.n	800327e <_printf_i+0x1b6>
 80031e2:	4616      	mov	r6, r2
 80031e4:	fbb5 f1f3 	udiv	r1, r5, r3
 80031e8:	fb03 5711 	mls	r7, r3, r1, r5
 80031ec:	5dc7      	ldrb	r7, [r0, r7]
 80031ee:	f806 7d01 	strb.w	r7, [r6, #-1]!
 80031f2:	462f      	mov	r7, r5
 80031f4:	42bb      	cmp	r3, r7
 80031f6:	460d      	mov	r5, r1
 80031f8:	d9f4      	bls.n	80031e4 <_printf_i+0x11c>
 80031fa:	2b08      	cmp	r3, #8
 80031fc:	d10b      	bne.n	8003216 <_printf_i+0x14e>
 80031fe:	6823      	ldr	r3, [r4, #0]
 8003200:	07df      	lsls	r7, r3, #31
 8003202:	d508      	bpl.n	8003216 <_printf_i+0x14e>
 8003204:	6923      	ldr	r3, [r4, #16]
 8003206:	6861      	ldr	r1, [r4, #4]
 8003208:	4299      	cmp	r1, r3
 800320a:	bfde      	ittt	le
 800320c:	2330      	movle	r3, #48	; 0x30
 800320e:	f806 3c01 	strble.w	r3, [r6, #-1]
 8003212:	f106 36ff 	addle.w	r6, r6, #4294967295
 8003216:	1b92      	subs	r2, r2, r6
 8003218:	6122      	str	r2, [r4, #16]
 800321a:	464b      	mov	r3, r9
 800321c:	4621      	mov	r1, r4
 800321e:	4640      	mov	r0, r8
 8003220:	f8cd a000 	str.w	sl, [sp]
 8003224:	aa03      	add	r2, sp, #12
 8003226:	f7ff fedf 	bl	8002fe8 <_printf_common>
 800322a:	3001      	adds	r0, #1
 800322c:	d14c      	bne.n	80032c8 <_printf_i+0x200>
 800322e:	f04f 30ff 	mov.w	r0, #4294967295
 8003232:	b004      	add	sp, #16
 8003234:	e8bd 87f0 	ldmia.w	sp!, {r4, r5, r6, r7, r8, r9, sl, pc}
 8003238:	4834      	ldr	r0, [pc, #208]	; (800330c <_printf_i+0x244>)
 800323a:	f884 7045 	strb.w	r7, [r4, #69]	; 0x45
 800323e:	680e      	ldr	r6, [r1, #0]
 8003240:	6823      	ldr	r3, [r4, #0]
 8003242:	f856 5b04 	ldr.w	r5, [r6], #4
 8003246:	061f      	lsls	r7, r3, #24
 8003248:	600e      	str	r6, [r1, #0]
 800324a:	d514      	bpl.n	8003276 <_printf_i+0x1ae>
 800324c:	07d9      	lsls	r1, r3, #31
 800324e:	bf44      	itt	mi
 8003250:	f043 0320 	orrmi.w	r3, r3, #32
 8003254:	6023      	strmi	r3, [r4, #0]
 8003256:	b91d      	cbnz	r5, 8003260 <_printf_i+0x198>
 8003258:	6823      	ldr	r3, [r4, #0]
 800325a:	f023 0320 	bic.w	r3, r3, #32
 800325e:	6023      	str	r3, [r4, #0]
 8003260:	2310      	movs	r3, #16
 8003262:	e7af      	b.n	80031c4 <_printf_i+0xfc>
 8003264:	6823      	ldr	r3, [r4, #0]
 8003266:	f043 0320 	orr.w	r3, r3, #32
 800326a:	6023      	str	r3, [r4, #0]
 800326c:	2378      	movs	r3, #120	; 0x78
 800326e:	4828      	ldr	r0, [pc, #160]	; (8003310 <_printf_i+0x248>)
 8003270:	f884 3045 	strb.w	r3, [r4, #69]	; 0x45
 8003274:	e7e3      	b.n	800323e <_printf_i+0x176>
 8003276:	065e      	lsls	r6, r3, #25
 8003278:	bf48      	it	mi
 800327a:	b2ad      	uxthmi	r5, r5
 800327c:	e7e6      	b.n	800324c <_printf_i+0x184>
 800327e:	4616      	mov	r6, r2
 8003280:	e7bb      	b.n	80031fa <_printf_i+0x132>
 8003282:	680b      	ldr	r3, [r1, #0]
 8003284:	6826      	ldr	r6, [r4, #0]
 8003286:	1d1d      	adds	r5, r3, #4
 8003288:	6960      	ldr	r0, [r4, #20]
 800328a:	600d      	str	r5, [r1, #0]
 800328c:	0635      	lsls	r5, r6, #24
 800328e:	681b      	ldr	r3, [r3, #0]
 8003290:	d501      	bpl.n	8003296 <_printf_i+0x1ce>
 8003292:	6018      	str	r0, [r3, #0]
 8003294:	e002      	b.n	800329c <_printf_i+0x1d4>
 8003296:	0671      	lsls	r1, r6, #25
 8003298:	d5fb      	bpl.n	8003292 <_printf_i+0x1ca>
 800329a:	8018      	strh	r0, [r3, #0]
 800329c:	2300      	movs	r3, #0
 800329e:	4616      	mov	r6, r2
 80032a0:	6123      	str	r3, [r4, #16]
 80032a2:	e7ba      	b.n	800321a <_printf_i+0x152>
 80032a4:	680b      	ldr	r3, [r1, #0]
 80032a6:	1d1a      	adds	r2, r3, #4
 80032a8:	600a      	str	r2, [r1, #0]
 80032aa:	681e      	ldr	r6, [r3, #0]
 80032ac:	2100      	movs	r1, #0
 80032ae:	4630      	mov	r0, r6
 80032b0:	6862      	ldr	r2, [r4, #4]
 80032b2:	f000 f82f 	bl	8003314 <memchr>
 80032b6:	b108      	cbz	r0, 80032bc <_printf_i+0x1f4>
 80032b8:	1b80      	subs	r0, r0, r6
 80032ba:	6060      	str	r0, [r4, #4]
 80032bc:	6863      	ldr	r3, [r4, #4]
 80032be:	6123      	str	r3, [r4, #16]
 80032c0:	2300      	movs	r3, #0
 80032c2:	f884 3043 	strb.w	r3, [r4, #67]	; 0x43
 80032c6:	e7a8      	b.n	800321a <_printf_i+0x152>
 80032c8:	4632      	mov	r2, r6
 80032ca:	4649      	mov	r1, r9
 80032cc:	4640      	mov	r0, r8
 80032ce:	6923      	ldr	r3, [r4, #16]
 80032d0:	47d0      	blx	sl
 80032d2:	3001      	adds	r0, #1
 80032d4:	d0ab      	beq.n	800322e <_printf_i+0x166>
 80032d6:	6823      	ldr	r3, [r4, #0]
 80032d8:	079b      	lsls	r3, r3, #30
 80032da:	d413      	bmi.n	8003304 <_printf_i+0x23c>
 80032dc:	68e0      	ldr	r0, [r4, #12]
 80032de:	9b03      	ldr	r3, [sp, #12]
 80032e0:	4298      	cmp	r0, r3
 80032e2:	bfb8      	it	lt
 80032e4:	4618      	movlt	r0, r3
 80032e6:	e7a4      	b.n	8003232 <_printf_i+0x16a>
 80032e8:	2301      	movs	r3, #1
 80032ea:	4632      	mov	r2, r6
 80032ec:	4649      	mov	r1, r9
 80032ee:	4640      	mov	r0, r8
 80032f0:	47d0      	blx	sl
 80032f2:	3001      	adds	r0, #1
 80032f4:	d09b      	beq.n	800322e <_printf_i+0x166>
 80032f6:	3501      	adds	r5, #1
 80032f8:	68e3      	ldr	r3, [r4, #12]
 80032fa:	9903      	ldr	r1, [sp, #12]
 80032fc:	1a5b      	subs	r3, r3, r1
 80032fe:	42ab      	cmp	r3, r5
 8003300:	dcf2      	bgt.n	80032e8 <_printf_i+0x220>
 8003302:	e7eb      	b.n	80032dc <_printf_i+0x214>
 8003304:	2500      	movs	r5, #0
 8003306:	f104 0619 	add.w	r6, r4, #25
 800330a:	e7f5      	b.n	80032f8 <_printf_i+0x230>
 800330c:	08003ad3 	.word	0x08003ad3
 8003310:	08003ae4 	.word	0x08003ae4

08003314 <memchr>:
 8003314:	4603      	mov	r3, r0
 8003316:	b510      	push	{r4, lr}
 8003318:	b2c9      	uxtb	r1, r1
 800331a:	4402      	add	r2, r0
 800331c:	4293      	cmp	r3, r2
 800331e:	4618      	mov	r0, r3
 8003320:	d101      	bne.n	8003326 <memchr+0x12>
 8003322:	2000      	movs	r0, #0
 8003324:	e003      	b.n	800332e <memchr+0x1a>
 8003326:	7804      	ldrb	r4, [r0, #0]
 8003328:	3301      	adds	r3, #1
 800332a:	428c      	cmp	r4, r1
 800332c:	d1f6      	bne.n	800331c <memchr+0x8>
 800332e:	bd10      	pop	{r4, pc}

08003330 <memmove>:
 8003330:	4288      	cmp	r0, r1
 8003332:	b510      	push	{r4, lr}
 8003334:	eb01 0402 	add.w	r4, r1, r2
 8003338:	d902      	bls.n	8003340 <memmove+0x10>
 800333a:	4284      	cmp	r4, r0
 800333c:	4623      	mov	r3, r4
 800333e:	d807      	bhi.n	8003350 <memmove+0x20>
 8003340:	1e43      	subs	r3, r0, #1
 8003342:	42a1      	cmp	r1, r4
 8003344:	d008      	beq.n	8003358 <memmove+0x28>
 8003346:	f811 2b01 	ldrb.w	r2, [r1], #1
 800334a:	f803 2f01 	strb.w	r2, [r3, #1]!
 800334e:	e7f8      	b.n	8003342 <memmove+0x12>
 8003350:	4601      	mov	r1, r0
 8003352:	4402      	add	r2, r0
 8003354:	428a      	cmp	r2, r1
 8003356:	d100      	bne.n	800335a <memmove+0x2a>
 8003358:	bd10      	pop	{r4, pc}
 800335a:	f813 4d01 	ldrb.w	r4, [r3, #-1]!
 800335e:	f802 4d01 	strb.w	r4, [r2, #-1]!
 8003362:	e7f7      	b.n	8003354 <memmove+0x24>

08003364 <_free_r>:
 8003364:	b538      	push	{r3, r4, r5, lr}
 8003366:	4605      	mov	r5, r0
 8003368:	2900      	cmp	r1, #0
 800336a:	d043      	beq.n	80033f4 <_free_r+0x90>
 800336c:	f851 3c04 	ldr.w	r3, [r1, #-4]
 8003370:	1f0c      	subs	r4, r1, #4
 8003372:	2b00      	cmp	r3, #0
 8003374:	bfb8      	it	lt
 8003376:	18e4      	addlt	r4, r4, r3
 8003378:	f000 f8d0 	bl	800351c <__malloc_lock>
 800337c:	4a1e      	ldr	r2, [pc, #120]	; (80033f8 <_free_r+0x94>)
 800337e:	6813      	ldr	r3, [r2, #0]
 8003380:	4610      	mov	r0, r2
 8003382:	b933      	cbnz	r3, 8003392 <_free_r+0x2e>
 8003384:	6063      	str	r3, [r4, #4]
 8003386:	6014      	str	r4, [r2, #0]
 8003388:	4628      	mov	r0, r5
 800338a:	e8bd 4038 	ldmia.w	sp!, {r3, r4, r5, lr}
 800338e:	f000 b8cb 	b.w	8003528 <__malloc_unlock>
 8003392:	42a3      	cmp	r3, r4
 8003394:	d90a      	bls.n	80033ac <_free_r+0x48>
 8003396:	6821      	ldr	r1, [r4, #0]
 8003398:	1862      	adds	r2, r4, r1
 800339a:	4293      	cmp	r3, r2
 800339c:	bf01      	itttt	eq
 800339e:	681a      	ldreq	r2, [r3, #0]
 80033a0:	685b      	ldreq	r3, [r3, #4]
 80033a2:	1852      	addeq	r2, r2, r1
 80033a4:	6022      	streq	r2, [r4, #0]
 80033a6:	6063      	str	r3, [r4, #4]
 80033a8:	6004      	str	r4, [r0, #0]
 80033aa:	e7ed      	b.n	8003388 <_free_r+0x24>
 80033ac:	461a      	mov	r2, r3
 80033ae:	685b      	ldr	r3, [r3, #4]
 80033b0:	b10b      	cbz	r3, 80033b6 <_free_r+0x52>
 80033b2:	42a3      	cmp	r3, r4
 80033b4:	d9fa      	bls.n	80033ac <_free_r+0x48>
 80033b6:	6811      	ldr	r1, [r2, #0]
 80033b8:	1850      	adds	r0, r2, r1
 80033ba:	42a0      	cmp	r0, r4
 80033bc:	d10b      	bne.n	80033d6 <_free_r+0x72>
 80033be:	6820      	ldr	r0, [r4, #0]
 80033c0:	4401      	add	r1, r0
 80033c2:	1850      	adds	r0, r2, r1
 80033c4:	4283      	cmp	r3, r0
 80033c6:	6011      	str	r1, [r2, #0]
 80033c8:	d1de      	bne.n	8003388 <_free_r+0x24>
 80033ca:	6818      	ldr	r0, [r3, #0]
 80033cc:	685b      	ldr	r3, [r3, #4]
 80033ce:	4401      	add	r1, r0
 80033d0:	6011      	str	r1, [r2, #0]
 80033d2:	6053      	str	r3, [r2, #4]
 80033d4:	e7d8      	b.n	8003388 <_free_r+0x24>
 80033d6:	d902      	bls.n	80033de <_free_r+0x7a>
 80033d8:	230c      	movs	r3, #12
 80033da:	602b      	str	r3, [r5, #0]
 80033dc:	e7d4      	b.n	8003388 <_free_r+0x24>
 80033de:	6820      	ldr	r0, [r4, #0]
 80033e0:	1821      	adds	r1, r4, r0
 80033e2:	428b      	cmp	r3, r1
 80033e4:	bf01      	itttt	eq
 80033e6:	6819      	ldreq	r1, [r3, #0]
 80033e8:	685b      	ldreq	r3, [r3, #4]
 80033ea:	1809      	addeq	r1, r1, r0
 80033ec:	6021      	streq	r1, [r4, #0]
 80033ee:	6063      	str	r3, [r4, #4]
 80033f0:	6054      	str	r4, [r2, #4]
 80033f2:	e7c9      	b.n	8003388 <_free_r+0x24>
 80033f4:	bd38      	pop	{r3, r4, r5, pc}
 80033f6:	bf00      	nop
 80033f8:	20004600 	.word	0x20004600

080033fc <_malloc_r>:
 80033fc:	b5f8      	push	{r3, r4, r5, r6, r7, lr}
 80033fe:	1ccd      	adds	r5, r1, #3
 8003400:	f025 0503 	bic.w	r5, r5, #3
 8003404:	3508      	adds	r5, #8
 8003406:	2d0c      	cmp	r5, #12
 8003408:	bf38      	it	cc
 800340a:	250c      	movcc	r5, #12
 800340c:	2d00      	cmp	r5, #0
 800340e:	4606      	mov	r6, r0
 8003410:	db01      	blt.n	8003416 <_malloc_r+0x1a>
 8003412:	42a9      	cmp	r1, r5
 8003414:	d903      	bls.n	800341e <_malloc_r+0x22>
 8003416:	230c      	movs	r3, #12
 8003418:	6033      	str	r3, [r6, #0]
 800341a:	2000      	movs	r0, #0
 800341c:	bdf8      	pop	{r3, r4, r5, r6, r7, pc}
 800341e:	f000 f87d 	bl	800351c <__malloc_lock>
 8003422:	4921      	ldr	r1, [pc, #132]	; (80034a8 <_malloc_r+0xac>)
 8003424:	680a      	ldr	r2, [r1, #0]
 8003426:	4614      	mov	r4, r2
 8003428:	b99c      	cbnz	r4, 8003452 <_malloc_r+0x56>
 800342a:	4f20      	ldr	r7, [pc, #128]	; (80034ac <_malloc_r+0xb0>)
 800342c:	683b      	ldr	r3, [r7, #0]
 800342e:	b923      	cbnz	r3, 800343a <_malloc_r+0x3e>
 8003430:	4621      	mov	r1, r4
 8003432:	4630      	mov	r0, r6
 8003434:	f000 f862 	bl	80034fc <_sbrk_r>
 8003438:	6038      	str	r0, [r7, #0]
 800343a:	4629      	mov	r1, r5
 800343c:	4630      	mov	r0, r6
 800343e:	f000 f85d 	bl	80034fc <_sbrk_r>
 8003442:	1c43      	adds	r3, r0, #1
 8003444:	d123      	bne.n	800348e <_malloc_r+0x92>
 8003446:	230c      	movs	r3, #12
 8003448:	4630      	mov	r0, r6
 800344a:	6033      	str	r3, [r6, #0]
 800344c:	f000 f86c 	bl	8003528 <__malloc_unlock>
 8003450:	e7e3      	b.n	800341a <_malloc_r+0x1e>
 8003452:	6823      	ldr	r3, [r4, #0]
 8003454:	1b5b      	subs	r3, r3, r5
 8003456:	d417      	bmi.n	8003488 <_malloc_r+0x8c>
 8003458:	2b0b      	cmp	r3, #11
 800345a:	d903      	bls.n	8003464 <_malloc_r+0x68>
 800345c:	6023      	str	r3, [r4, #0]
 800345e:	441c      	add	r4, r3
 8003460:	6025      	str	r5, [r4, #0]
 8003462:	e004      	b.n	800346e <_malloc_r+0x72>
 8003464:	6863      	ldr	r3, [r4, #4]
 8003466:	42a2      	cmp	r2, r4
 8003468:	bf0c      	ite	eq
 800346a:	600b      	streq	r3, [r1, #0]
 800346c:	6053      	strne	r3, [r2, #4]
 800346e:	4630      	mov	r0, r6
 8003470:	f000 f85a 	bl	8003528 <__malloc_unlock>
 8003474:	f104 000b 	add.w	r0, r4, #11
 8003478:	1d23      	adds	r3, r4, #4
 800347a:	f020 0007 	bic.w	r0, r0, #7
 800347e:	1ac2      	subs	r2, r0, r3
 8003480:	d0cc      	beq.n	800341c <_malloc_r+0x20>
 8003482:	1a1b      	subs	r3, r3, r0
 8003484:	50a3      	str	r3, [r4, r2]
 8003486:	e7c9      	b.n	800341c <_malloc_r+0x20>
 8003488:	4622      	mov	r2, r4
 800348a:	6864      	ldr	r4, [r4, #4]
 800348c:	e7cc      	b.n	8003428 <_malloc_r+0x2c>
 800348e:	1cc4      	adds	r4, r0, #3
 8003490:	f024 0403 	bic.w	r4, r4, #3
 8003494:	42a0      	cmp	r0, r4
 8003496:	d0e3      	beq.n	8003460 <_malloc_r+0x64>
 8003498:	1a21      	subs	r1, r4, r0
 800349a:	4630      	mov	r0, r6
 800349c:	f000 f82e 	bl	80034fc <_sbrk_r>
 80034a0:	3001      	adds	r0, #1
 80034a2:	d1dd      	bne.n	8003460 <_malloc_r+0x64>
 80034a4:	e7cf      	b.n	8003446 <_malloc_r+0x4a>
 80034a6:	bf00      	nop
 80034a8:	20004600 	.word	0x20004600
 80034ac:	20004604 	.word	0x20004604

080034b0 <_realloc_r>:
 80034b0:	b5f8      	push	{r3, r4, r5, r6, r7, lr}
 80034b2:	4607      	mov	r7, r0
 80034b4:	4614      	mov	r4, r2
 80034b6:	460e      	mov	r6, r1
 80034b8:	b921      	cbnz	r1, 80034c4 <_realloc_r+0x14>
 80034ba:	4611      	mov	r1, r2
 80034bc:	e8bd 40f8 	ldmia.w	sp!, {r3, r4, r5, r6, r7, lr}
 80034c0:	f7ff bf9c 	b.w	80033fc <_malloc_r>
 80034c4:	b922      	cbnz	r2, 80034d0 <_realloc_r+0x20>
 80034c6:	f7ff ff4d 	bl	8003364 <_free_r>
 80034ca:	4625      	mov	r5, r4
 80034cc:	4628      	mov	r0, r5
 80034ce:	bdf8      	pop	{r3, r4, r5, r6, r7, pc}
 80034d0:	f000 f830 	bl	8003534 <_malloc_usable_size_r>
 80034d4:	42a0      	cmp	r0, r4
 80034d6:	d20f      	bcs.n	80034f8 <_realloc_r+0x48>
 80034d8:	4621      	mov	r1, r4
 80034da:	4638      	mov	r0, r7
 80034dc:	f7ff ff8e 	bl	80033fc <_malloc_r>
 80034e0:	4605      	mov	r5, r0
 80034e2:	2800      	cmp	r0, #0
 80034e4:	d0f2      	beq.n	80034cc <_realloc_r+0x1c>
 80034e6:	4631      	mov	r1, r6
 80034e8:	4622      	mov	r2, r4
 80034ea:	f7ff fbf3 	bl	8002cd4 <memcpy>
 80034ee:	4631      	mov	r1, r6
 80034f0:	4638      	mov	r0, r7
 80034f2:	f7ff ff37 	bl	8003364 <_free_r>
 80034f6:	e7e9      	b.n	80034cc <_realloc_r+0x1c>
 80034f8:	4635      	mov	r5, r6
 80034fa:	e7e7      	b.n	80034cc <_realloc_r+0x1c>

080034fc <_sbrk_r>:
 80034fc:	b538      	push	{r3, r4, r5, lr}
 80034fe:	2300      	movs	r3, #0
 8003500:	4d05      	ldr	r5, [pc, #20]	; (8003518 <_sbrk_r+0x1c>)
 8003502:	4604      	mov	r4, r0
 8003504:	4608      	mov	r0, r1
 8003506:	602b      	str	r3, [r5, #0]
 8003508:	f7ff fb7c 	bl	8002c04 <_sbrk>
 800350c:	1c43      	adds	r3, r0, #1
 800350e:	d102      	bne.n	8003516 <_sbrk_r+0x1a>
 8003510:	682b      	ldr	r3, [r5, #0]
 8003512:	b103      	cbz	r3, 8003516 <_sbrk_r+0x1a>
 8003514:	6023      	str	r3, [r4, #0]
 8003516:	bd38      	pop	{r3, r4, r5, pc}
 8003518:	20004658 	.word	0x20004658

0800351c <__malloc_lock>:
 800351c:	4801      	ldr	r0, [pc, #4]	; (8003524 <__malloc_lock+0x8>)
 800351e:	f000 b811 	b.w	8003544 <__retarget_lock_acquire_recursive>
 8003522:	bf00      	nop
 8003524:	20004660 	.word	0x20004660

08003528 <__malloc_unlock>:
 8003528:	4801      	ldr	r0, [pc, #4]	; (8003530 <__malloc_unlock+0x8>)
 800352a:	f000 b80c 	b.w	8003546 <__retarget_lock_release_recursive>
 800352e:	bf00      	nop
 8003530:	20004660 	.word	0x20004660

08003534 <_malloc_usable_size_r>:
 8003534:	f851 3c04 	ldr.w	r3, [r1, #-4]
 8003538:	1f18      	subs	r0, r3, #4
 800353a:	2b00      	cmp	r3, #0
 800353c:	bfbc      	itt	lt
 800353e:	580b      	ldrlt	r3, [r1, r0]
 8003540:	18c0      	addlt	r0, r0, r3
 8003542:	4770      	bx	lr

08003544 <__retarget_lock_acquire_recursive>:
 8003544:	4770      	bx	lr

08003546 <__retarget_lock_release_recursive>:
 8003546:	4770      	bx	lr

08003548 <_init>:
 8003548:	b5f8      	push	{r3, r4, r5, r6, r7, lr}
 800354a:	bf00      	nop
 800354c:	bcf8      	pop	{r3, r4, r5, r6, r7}
 800354e:	bc08      	pop	{r3}
 8003550:	469e      	mov	lr, r3
 8003552:	4770      	bx	lr

08003554 <_fini>:
 8003554:	b5f8      	push	{r3, r4, r5, r6, r7, lr}
 8003556:	bf00      	nop
 8003558:	bcf8      	pop	{r3, r4, r5, r6, r7}
 800355a:	bc08      	pop	{r3}
 800355c:	469e      	mov	lr, r3
 800355e:	4770      	bx	lr
